---
triple:          'arm64-apple-darwin'
binary-path:     party4
relocations:
  - { offsetInCU: 0x52, offset: 0x52, size: 0x8, addend: 0x0, symName: _edges, symObjAddr: 0xC6A50, symBinAddr: 0x100020000, symSize: 0x0 }
  - { offsetInCU: 0xA488, offset: 0xA488, size: 0x8, addend: 0x0, symName: __ZNSt3__1L19piecewise_constructE, symObjAddr: 0x16FD5, symBinAddr: 0x10001AF15, symSize: 0x0 }
  - { offsetInCU: 0x114E1, offset: 0x114E1, size: 0x8, addend: 0x0, symName: __ZNSt3__17advanceB7v160006INS_21__tree_const_iteratorINS_12__value_typeIcP7adjNodeEEPNS_11__tree_nodeIS5_PvEElEEllvEEvRT_T0_, symObjAddr: 0x5DE4, symBinAddr: 0x1000096B4, symSize: 0x50 }
  - { offsetInCU: 0x11572, offset: 0x11572, size: 0x8, addend: 0x0, symName: __ZNSt3__124__put_character_sequenceB7v160006IcNS_11char_traitsIcEEEERNS_13basic_ostreamIT_T0_EES7_PKS4_m, symObjAddr: 0x60AC, symBinAddr: 0x10000997C, symSize: 0x1EC }
  - { offsetInCU: 0x15B64, offset: 0x15B64, size: 0x8, addend: 0x0, symName: __ZNSt3__117__floyd_sift_downB7v160006INS_17_ClassicAlgPolicyERNS_7greaterINS_4pairIicEEEENS_11__wrap_iterIPS4_EEEET1_SA_OT0_NS_15iterator_traitsISA_E15difference_typeE, symObjAddr: 0xF994, symBinAddr: 0x100013264, symSize: 0x148 }
  - { offsetInCU: 0x1654C, offset: 0x1654C, size: 0x8, addend: 0x0, symName: __ZNSt3__17advanceB7v160006IPimmvEEvRT_T0_, symObjAddr: 0x1528C, symBinAddr: 0x100018B5C, symSize: 0x50 }
  - { offsetInCU: 0x174BA, offset: 0x174BA, size: 0x8, addend: 0x0, symName: __ZNSt3__1lsB7v160006INS_11char_traitsIcEEEERNS_13basic_ostreamIcT_EES6_PKc, symObjAddr: 0xB4, symBinAddr: 0x100003984, symSize: 0x48 }
  - { offsetInCU: 0x17500, offset: 0x17500, size: 0x8, addend: 0x0, symName: __ZNSt3__1lsB7v160006INS_11char_traitsIcEEEERNS_13basic_ostreamIcT_EES6_c, symObjAddr: 0xFC, symBinAddr: 0x1000039CC, symSize: 0x34 }
  - { offsetInCU: 0x17546, offset: 0x17546, size: 0x8, addend: 0x0, symName: __ZNSt3__14endlB7v160006IcNS_11char_traitsIcEEEERNS_13basic_ostreamIT_T0_EES7_, symObjAddr: 0x15C, symBinAddr: 0x100003A2C, symSize: 0x58 }
  - { offsetInCU: 0x17586, offset: 0x17586, size: 0x8, addend: 0x0, symName: __ZNSt3__1rsB7v160006IcNS_11char_traitsIcEEEERNS_13basic_istreamIT_T0_EES7_RS4_, symObjAddr: 0x510, symBinAddr: 0x100003DE0, symSize: 0x190 }
  - { offsetInCU: 0x17608, offset: 0x17608, size: 0x8, addend: 0x0, symName: __ZNSt3__1neB7v160006IPNS_6vectorIcNS_9allocatorIcEEEEEEbRKNS_11__wrap_iterIT_EESA_, symObjAddr: 0x85C, symBinAddr: 0x10000412C, symSize: 0x34 }
  - { offsetInCU: 0x1764B, offset: 0x1764B, size: 0x8, addend: 0x0, symName: __ZNSt3__1neB7v160006IPcEEbRKNS_11__wrap_iterIT_EES6_, symObjAddr: 0x93C, symBinAddr: 0x10000420C, symSize: 0x34 }
  - { offsetInCU: 0x1768E, offset: 0x1768E, size: 0x8, addend: 0x0, symName: __ZNSt3__1neB7v160006ERKNS_20__map_const_iteratorINS_21__tree_const_iteratorINS_12__value_typeIcP7adjNodeEEPNS_11__tree_nodeIS5_PvEElEEEESD_, symObjAddr: 0x1060, symBinAddr: 0x100004930, symSize: 0x30 }
  - { offsetInCU: 0x17930, offset: 0x17930, size: 0x8, addend: 0x0, symName: __ZNSt3__1neB7v160006ERKNS_14__map_iteratorINS_15__tree_iteratorINS_12__value_typeIciEEPNS_11__tree_nodeIS3_PvEElEEEESB_, symObjAddr: 0x1400, symBinAddr: 0x100004CD0, symSize: 0x30 }
  - { offsetInCU: 0x1796D, offset: 0x1796D, size: 0x8, addend: 0x0, symName: __ZNSt3__1neB7v160006ERKNS_14__map_iteratorINS_15__tree_iteratorINS_12__value_typeIcNS_6vectorIiNS_9allocatorIiEEEEEEPNS_11__tree_nodeIS7_PvEElEEEESF_, symObjAddr: 0x1F90, symBinAddr: 0x100005860, symSize: 0x30 }
  - { offsetInCU: 0x179AA, offset: 0x179AA, size: 0x8, addend: 0x0, symName: __ZNSt3__111max_elementB7v160006INS_11__wrap_iterIPiEEEET_S4_S4_, symObjAddr: 0x2038, symBinAddr: 0x100005908, symSize: 0x44 }
  - { offsetInCU: 0x179ED, offset: 0x179ED, size: 0x8, addend: 0x0, symName: __ZNSt3__111min_elementB7v160006INS_14__map_iteratorINS_15__tree_iteratorINS_12__value_typeIciEEPNS_11__tree_nodeIS4_PvEElEEEEPFbRKNS_4pairIciEESE_EEET_SH_SH_T0_, symObjAddr: 0x20F4, symBinAddr: 0x1000059C4, symSize: 0x50 }
  - { offsetInCU: 0x17B0E, offset: 0x17B0E, size: 0x8, addend: 0x0, symName: __ZNSt3__1neB7v160006ERKNS_14__map_iteratorINS_15__tree_iteratorINS_12__value_typeIcP7adjNodeEEPNS_11__tree_nodeIS5_PvEElEEEESD_, symObjAddr: 0x23C8, symBinAddr: 0x100005C98, symSize: 0x30 }
  - { offsetInCU: 0x17B4B, offset: 0x17B4B, size: 0x8, addend: 0x0, symName: __ZNSt3__1eqB7v160006IPNS_6vectorIcNS_9allocatorIcEEEEEEbRKNS_11__wrap_iterIT_EESA_, symObjAddr: 0x24AC, symBinAddr: 0x100005D7C, symSize: 0x48 }
  - { offsetInCU: 0x17B8E, offset: 0x17B8E, size: 0x8, addend: 0x0, symName: __ZNSt3__1eqB7v160006IPcEEbRKNS_11__wrap_iterIT_EES6_, symObjAddr: 0x250C, symBinAddr: 0x100005DDC, symSize: 0x48 }
  - { offsetInCU: 0x17BD1, offset: 0x17BD1, size: 0x8, addend: 0x0, symName: __ZNSt3__118__debug_db_erase_cB7v160006INS_6vectorINS_4pairIicEENS_9allocatorIS3_EEEEEEvPT_, symObjAddr: 0x2858, symBinAddr: 0x100006128, symSize: 0x10 }
  - { offsetInCU: 0x17C02, offset: 0x17C02, size: 0x8, addend: 0x0, symName: __ZNSt3__112__to_addressB7v160006INS_4pairIicEEEEPT_S4_, symObjAddr: 0x299C, symBinAddr: 0x10000626C, symSize: 0x14 }
  - { offsetInCU: 0x17C37, offset: 0x17C37, size: 0x8, addend: 0x0, symName: __ZNSt3__119__libcpp_deallocateB7v160006EPvmm, symObjAddr: 0x2ABC, symBinAddr: 0x10000638C, symSize: 0x30 }
  - { offsetInCU: 0x17C7F, offset: 0x17C7F, size: 0x8, addend: 0x0, symName: __ZNSt3__127__do_deallocate_handle_sizeB7v160006IJEEEvPvmDpT_, symObjAddr: 0x2AEC, symBinAddr: 0x1000063BC, symSize: 0x28 }
  - { offsetInCU: 0x17CBD, offset: 0x17CBD, size: 0x8, addend: 0x0, symName: __ZNSt3__124__libcpp_operator_deleteB7v160006IJPvEEEvDpT_, symObjAddr: 0x2B14, symBinAddr: 0x1000063E4, symSize: 0x24 }
  - { offsetInCU: 0x17CF2, offset: 0x17CF2, size: 0x8, addend: 0x0, symName: __ZNSt3__111max_elementB7v160006INS_11__wrap_iterIPiEENS_6__lessIiiEEEET_S6_S6_T0_, symObjAddr: 0x2BD0, symBinAddr: 0x1000064A0, symSize: 0x48 }
  - { offsetInCU: 0x17D4C, offset: 0x17D4C, size: 0x8, addend: 0x0, symName: __ZNSt3__113__max_elementB7v160006IRNS_6__lessIiiEENS_11__wrap_iterIPiEEEET0_S7_S7_T_, symObjAddr: 0x2C18, symBinAddr: 0x1000064E8, symSize: 0xB8 }
  - { offsetInCU: 0x17DC2, offset: 0x17DC2, size: 0x8, addend: 0x0, symName: __ZNSt3__1neB7v160006IPiEEbRKNS_11__wrap_iterIT_EES6_, symObjAddr: 0x2CD0, symBinAddr: 0x1000065A0, symSize: 0x34 }
  - { offsetInCU: 0x17E40, offset: 0x17E40, size: 0x8, addend: 0x0, symName: __ZNSt3__1eqB7v160006IPiEEbRKNS_11__wrap_iterIT_EES6_, symObjAddr: 0x2D58, symBinAddr: 0x100006628, symSize: 0x48 }
  - { offsetInCU: 0x17E83, offset: 0x17E83, size: 0x8, addend: 0x0, symName: __ZNSt3__113__min_elementB7v160006IRPFbRKNS_4pairIciEES4_ENS_14__map_iteratorINS_15__tree_iteratorINS_12__value_typeIciEEPNS_11__tree_nodeISB_PvEElEEEESH_EET0_SI_T1_T_, symObjAddr: 0x2DB8, symBinAddr: 0x100006688, symSize: 0x5C }
  - { offsetInCU: 0x17EF4, offset: 0x17EF4, size: 0x8, addend: 0x0, symName: __ZNSt3__113__min_elementB7v160006IRPFbRKNS_4pairIciEES4_ENS_14__map_iteratorINS_15__tree_iteratorINS_12__value_typeIciEEPNS_11__tree_nodeISB_PvEElEEEESH_NS_10__identityEEET0_SJ_T1_T_RT2_, symObjAddr: 0x2E14, symBinAddr: 0x1000066E4, symSize: 0xF0 }
  - { offsetInCU: 0x17F7C, offset: 0x17F7C, size: 0x8, addend: 0x0, symName: __ZNSt3__1eqB7v160006ERKNS_14__map_iteratorINS_15__tree_iteratorINS_12__value_typeIciEEPNS_11__tree_nodeIS3_PvEElEEEESB_, symObjAddr: 0x2F04, symBinAddr: 0x1000067D4, symSize: 0x30 }
  - { offsetInCU: 0x17FB9, offset: 0x17FB9, size: 0x8, addend: 0x0, symName: __ZNSt3__18__invokeB7v160006IRPFbRKNS_4pairIciEES4_EJRNS1_IKciEESA_EEEDTclclsr3stdE7declvalIT_EEspclsr3stdE7declvalIT0_EEEEOSB_DpOSC_, symObjAddr: 0x2F34, symBinAddr: 0x100006804, symSize: 0x64 }
  - { offsetInCU: 0x1801E, offset: 0x1801E, size: 0x8, addend: 0x0, symName: __ZNSt3__18__invokeB7v160006IRNS_10__identityEJRNS_4pairIKciEEEEEDTclclsr3stdE7declvalIT_EEspclsr3stdE7declvalIT0_EEEEOS7_DpOS8_, symObjAddr: 0x2F98, symBinAddr: 0x100006868, symSize: 0x2C }
  - { offsetInCU: 0x1806F, offset: 0x1806F, size: 0x8, addend: 0x0, symName: __ZNSt3__1eqB7v160006ERKNS_15__tree_iteratorINS_12__value_typeIciEEPNS_11__tree_nodeIS2_PvEElEES9_, symObjAddr: 0x2FC4, symBinAddr: 0x100006894, symSize: 0x30 }
  - { offsetInCU: 0x180D9, offset: 0x180D9, size: 0x8, addend: 0x0, symName: __ZNSt3__13getB7v160006ILm0EKciEERNS_13tuple_elementIXT_ENS_4pairIT0_T1_EEE4typeERS6_, symObjAddr: 0x3060, symBinAddr: 0x100006930, symSize: 0x24 }
  - { offsetInCU: 0x18122, offset: 0x18122, size: 0x8, addend: 0x0, symName: __ZNSt3__13getB7v160006ILm1EKciEERNS_13tuple_elementIXT_ENS_4pairIT0_T1_EEE4typeERS6_, symObjAddr: 0x3084, symBinAddr: 0x100006954, symSize: 0x24 }
  - { offsetInCU: 0x181E5, offset: 0x181E5, size: 0x8, addend: 0x0, symName: __ZNSt3__1neB7v160006IPNS_4pairIccEEEEbRKNS_11__wrap_iterIT_EES8_, symObjAddr: 0x32A8, symBinAddr: 0x100006B78, symSize: 0x34 }
  - { offsetInCU: 0x1825B, offset: 0x1825B, size: 0x8, addend: 0x0, symName: __ZNSt3__1eqB7v160006IPNS_4pairIccEEEEbRKNS_11__wrap_iterIT_EES8_, symObjAddr: 0x3864, symBinAddr: 0x100007134, symSize: 0x48 }
  - { offsetInCU: 0x182D5, offset: 0x182D5, size: 0x8, addend: 0x0, symName: __ZNSt3__116forward_as_tupleB7v160006IJRKcEEENS_5tupleIJDpOT_EEES6_, symObjAddr: 0x39C4, symBinAddr: 0x100007294, symSize: 0x2C }
  - { offsetInCU: 0x1830E, offset: 0x1830E, size: 0x8, addend: 0x0, symName: __ZNSt3__116forward_as_tupleB7v160006IJEEENS_5tupleIJDpOT_EEES4_, symObjAddr: 0x39F0, symBinAddr: 0x1000072C0, symSize: 0x4 }
  - { offsetInCU: 0x18350, offset: 0x18350, size: 0x8, addend: 0x0, symName: __ZNSt3__117__libcpp_allocateB7v160006Emm, symObjAddr: 0x4314, symBinAddr: 0x100007BE4, symSize: 0x28 }
  - { offsetInCU: 0x1838D, offset: 0x1838D, size: 0x8, addend: 0x0, symName: __ZNSt3__121__libcpp_operator_newB7v160006IJmEEEPvDpT_, symObjAddr: 0x4354, symBinAddr: 0x100007C24, symSize: 0x24 }
  - { offsetInCU: 0x183D1, offset: 0x183D1, size: 0x8, addend: 0x0, symName: __ZNSt3__13getB7v160006ILm0EJRKcEEERNS_13tuple_elementIXT_ENS_5tupleIJDpT0_EEEE4typeERS7_, symObjAddr: 0x45D0, symBinAddr: 0x100007EA0, symSize: 0x24 }
  - { offsetInCU: 0x18414, offset: 0x18414, size: 0x8, addend: 0x0, symName: __ZNSt3__127__tree_balance_after_insertB7v160006IPNS_16__tree_node_baseIPvEEEEvT_S5_, symObjAddr: 0x4680, symBinAddr: 0x100007F50, symSize: 0x32C }
  - { offsetInCU: 0x18490, offset: 0x18490, size: 0x8, addend: 0x0, symName: __ZNSt3__120__tree_is_left_childB7v160006IPNS_16__tree_node_baseIPvEEEEbT_, symObjAddr: 0x49EC, symBinAddr: 0x1000082BC, symSize: 0x2C }
  - { offsetInCU: 0x184C5, offset: 0x184C5, size: 0x8, addend: 0x0, symName: __ZNSt3__118__tree_left_rotateB7v160006IPNS_16__tree_node_baseIPvEEEEvT_, symObjAddr: 0x4A18, symBinAddr: 0x1000082E8, symSize: 0xD8 }
  - { offsetInCU: 0x18507, offset: 0x18507, size: 0x8, addend: 0x0, symName: __ZNSt3__119__tree_right_rotateB7v160006IPNS_16__tree_node_baseIPvEEEEvT_, symObjAddr: 0x4AF0, symBinAddr: 0x1000083C0, symSize: 0xCC }
  - { offsetInCU: 0x185C4, offset: 0x185C4, size: 0x8, addend: 0x0, symName: __ZNSt3__1eqB7v160006ERKNS_21__tree_const_iteratorINS_12__value_typeIcP7adjNodeEEPNS_11__tree_nodeIS4_PvEElEESB_, symObjAddr: 0x5B14, symBinAddr: 0x1000093E4, symSize: 0x30 }
  - { offsetInCU: 0x18601, offset: 0x18601, size: 0x8, addend: 0x0, symName: __ZNSt3__14nextB7v160006INS_21__tree_const_iteratorINS_12__value_typeIcP7adjNodeEEPNS_11__tree_nodeIS5_PvEElEEEENS_9enable_ifIXsr25__is_cpp17_input_iteratorIT_EE5valueESC_E4typeESC_NS_15iterator_traitsISC_E15difference_typeE, symObjAddr: 0x5C40, symBinAddr: 0x100009510, symSize: 0x50 }
  - { offsetInCU: 0x18644, offset: 0x18644, size: 0x8, addend: 0x0, symName: __ZNSt3__116__tree_prev_iterB7v160006IPNS_16__tree_node_baseIPvEEPNS_15__tree_end_nodeIS4_EEEET_T0_, symObjAddr: 0x5D1C, symBinAddr: 0x1000095EC, symSize: 0x88 }
  - { offsetInCU: 0x18690, offset: 0x18690, size: 0x8, addend: 0x0, symName: __ZNSt3__110__tree_maxB7v160006IPNS_16__tree_node_baseIPvEEEET_S5_, symObjAddr: 0x5DA4, symBinAddr: 0x100009674, symSize: 0x40 }
  - { offsetInCU: 0x186C5, offset: 0x186C5, size: 0x8, addend: 0x0, symName: __ZNSt3__121__convert_to_integralB7v160006El, symObjAddr: 0x5E34, symBinAddr: 0x100009704, symSize: 0x14 }
  - { offsetInCU: 0x186F1, offset: 0x186F1, size: 0x8, addend: 0x0, symName: __ZNSt3__19__advanceB7v160006INS_21__tree_const_iteratorINS_12__value_typeIcP7adjNodeEEPNS_11__tree_nodeIS5_PvEElEEEEvRT_NS_15iterator_traitsISB_E15difference_typeENS_26bidirectional_iterator_tagE, symObjAddr: 0x5E48, symBinAddr: 0x100009718, symSize: 0xA4 }
  - { offsetInCU: 0x1873A, offset: 0x1873A, size: 0x8, addend: 0x0, symName: __ZNSt3__116__tree_next_iterB7v160006IPNS_15__tree_end_nodeIPNS_16__tree_node_baseIPvEEEES5_EET_T0_, symObjAddr: 0x5F24, symBinAddr: 0x1000097F4, symSize: 0x80 }
  - { offsetInCU: 0x18778, offset: 0x18778, size: 0x8, addend: 0x0, symName: __ZNSt3__110__tree_minB7v160006IPNS_16__tree_node_baseIPvEEEET_S5_, symObjAddr: 0x5FA4, symBinAddr: 0x100009874, symSize: 0x40 }
  - { offsetInCU: 0x187AD, offset: 0x187AD, size: 0x8, addend: 0x0, symName: __ZNSt3__116__pad_and_outputB7v160006IcNS_11char_traitsIcEEEENS_19ostreambuf_iteratorIT_T0_EES6_PKS4_S8_S8_RNS_8ios_baseES4_, symObjAddr: 0x62E8, symBinAddr: 0x100009BB8, symSize: 0x240 }
  - { offsetInCU: 0x1887C, offset: 0x1887C, size: 0x8, addend: 0x0, symName: __ZNSt3__119__debug_db_insert_cB7v160006INS_12basic_stringIcNS_11char_traitsIcEENS_9allocatorIcEEEEEEvPT_, symObjAddr: 0x679C, symBinAddr: 0x10000A06C, symSize: 0x10 }
  - { offsetInCU: 0x188AD, offset: 0x188AD, size: 0x8, addend: 0x0, symName: __ZNSt3__112__to_addressB7v160006IKcEEPT_S3_, symObjAddr: 0x6868, symBinAddr: 0x10000A138, symSize: 0x14 }
  - { offsetInCU: 0x18915, offset: 0x18915, size: 0x8, addend: 0x0, symName: __ZNSt3__19use_facetB7v160006INS_5ctypeIcEEEERKT_RKNS_6localeE, symObjAddr: 0x6AE8, symBinAddr: 0x10000A3B8, symSize: 0x2C }
  - { offsetInCU: 0x18DE4, offset: 0x18DE4, size: 0x8, addend: 0x0, symName: __ZNSt3__118__constexpr_strlenB7v160006EPKc, symObjAddr: 0x6B80, symBinAddr: 0x10000A450, symSize: 0x24 }
  - { offsetInCU: 0x18E10, offset: 0x18E10, size: 0x8, addend: 0x0, symName: __ZNSt3__119__debug_db_insert_cB7v160006INS_6vectorINS_4pairIccEENS_9allocatorIS3_EEEEEEvPT_, symObjAddr: 0x6C38, symBinAddr: 0x10000A508, symSize: 0x10 }
  - { offsetInCU: 0x18E41, offset: 0x18E41, size: 0x8, addend: 0x0, symName: __ZNSt3__118__debug_db_erase_cB7v160006INS_6vectorINS_4pairIccEENS_9allocatorIS3_EEEEEEvPT_, symObjAddr: 0x6EFC, symBinAddr: 0x10000A7CC, symSize: 0x10 }
  - { offsetInCU: 0x18E72, offset: 0x18E72, size: 0x8, addend: 0x0, symName: __ZNSt3__112__to_addressB7v160006INS_4pairIccEEEEPT_S4_, symObjAddr: 0x7040, symBinAddr: 0x10000A910, symSize: 0x14 }
  - { offsetInCU: 0x18EA7, offset: 0x18EA7, size: 0x8, addend: 0x0, symName: __ZNSt3__119__debug_db_insert_cB7v160006INS_6vectorINS1_IcNS_9allocatorIcEEEENS2_IS4_EEEEEEvPT_, symObjAddr: 0x728C, symBinAddr: 0x10000AB5C, symSize: 0x10 }
  - { offsetInCU: 0x18ED8, offset: 0x18ED8, size: 0x8, addend: 0x0, symName: __ZNSt3__118__debug_db_erase_cB7v160006INS_6vectorINS1_IcNS_9allocatorIcEEEENS2_IS4_EEEEEEvPT_, symObjAddr: 0x756C, symBinAddr: 0x10000AE3C, symSize: 0x10 }
  - { offsetInCU: 0x18F09, offset: 0x18F09, size: 0x8, addend: 0x0, symName: __ZNSt3__112__to_addressB7v160006INS_6vectorIcNS_9allocatorIcEEEEEEPT_S6_, symObjAddr: 0x76B0, symBinAddr: 0x10000AF80, symSize: 0x14 }
  - { offsetInCU: 0x194C8, offset: 0x194C8, size: 0x8, addend: 0x0, symName: __ZNSt3__119__debug_db_insert_cB7v160006INS_6vectorIcNS_9allocatorIcEEEEEEvPT_, symObjAddr: 0x7A74, symBinAddr: 0x10000B344, symSize: 0x10 }
  - { offsetInCU: 0x194F9, offset: 0x194F9, size: 0x8, addend: 0x0, symName: __ZNSt3__118__debug_db_erase_cB7v160006INS_6vectorIcNS_9allocatorIcEEEEEEvPT_, symObjAddr: 0x7CCC, symBinAddr: 0x10000B59C, symSize: 0x10 }
  - { offsetInCU: 0x1952A, offset: 0x1952A, size: 0x8, addend: 0x0, symName: __ZNSt3__112__to_addressB7v160006IcEEPT_S2_, symObjAddr: 0x7DE0, symBinAddr: 0x10000B6B0, symSize: 0x14 }
  - { offsetInCU: 0x1955F, offset: 0x1955F, size: 0x8, addend: 0x0, symName: __ZNSt3__13maxB7v160006ImEERKT_S3_S3_, symObjAddr: 0x8590, symBinAddr: 0x10000BE60, symSize: 0x2C }
  - { offsetInCU: 0x195A2, offset: 0x195A2, size: 0x8, addend: 0x0, symName: __ZNSt3__13minB7v160006ImEERKT_S3_S3_, symObjAddr: 0x85BC, symBinAddr: 0x10000BE8C, symSize: 0x2C }
  - { offsetInCU: 0x197E6, offset: 0x197E6, size: 0x8, addend: 0x0, symName: __ZNSt3__13minB7v160006ImNS_6__lessImmEEEERKT_S5_S5_T0_, symObjAddr: 0x8648, symBinAddr: 0x10000BF18, symSize: 0x54 }
  - { offsetInCU: 0x1987B, offset: 0x1987B, size: 0x8, addend: 0x0, symName: __ZNSt3__120__throw_length_errorB7v160006EPKc, symObjAddr: 0x8724, symBinAddr: 0x10000BFF4, symSize: 0x64 }
  - { offsetInCU: 0x198A3, offset: 0x198A3, size: 0x8, addend: 0x0, symName: __ZNSt3__13maxB7v160006ImNS_6__lessImmEEEERKT_S5_S5_T0_, symObjAddr: 0x8808, symBinAddr: 0x10000C0D8, symSize: 0x54 }
  - { offsetInCU: 0x198FD, offset: 0x198FD, size: 0x8, addend: 0x0, symName: __ZNSt3__119__allocate_at_leastB7v160006INS_9allocatorIcEEEENS_19__allocation_resultINS_16allocator_traitsIT_E7pointerEEERS5_m, symObjAddr: 0x896C, symBinAddr: 0x10000C23C, symSize: 0x40 }
  - { offsetInCU: 0x19940, offset: 0x19940, size: 0x8, addend: 0x0, symName: __ZNSt3__142__uninitialized_allocator_move_if_noexceptB7v160006INS_9allocatorIcEENS_16reverse_iteratorIPcEES5_cvEET1_RT_T0_S9_S6_, symObjAddr: 0x8B20, symBinAddr: 0x10000C3F0, symSize: 0x78 }
  - { offsetInCU: 0x199BD, offset: 0x199BD, size: 0x8, addend: 0x0, symName: __ZNSt3__14swapB7v160006IPcEENS_9enable_ifIXaasr21is_move_constructibleIT_EE5valuesr18is_move_assignableIS3_EE5valueEvE4typeERS3_S6_, symObjAddr: 0x8BE4, symBinAddr: 0x10000C4B4, symSize: 0x3C }
  - { offsetInCU: 0x19A0E, offset: 0x19A0E, size: 0x8, addend: 0x0, symName: __ZNSt3__125__debug_db_invalidate_allB7v160006INS_6vectorIcNS_9allocatorIcEEEEEEvPT_, symObjAddr: 0x8CCC, symBinAddr: 0x10000C59C, symSize: 0x10 }
  - { offsetInCU: 0x19A3F, offset: 0x19A3F, size: 0x8, addend: 0x0, symName: __ZNSt3__14moveB7v160006INS_16reverse_iteratorIPcEES3_EET0_T_S5_S4_, symObjAddr: 0x8CDC, symBinAddr: 0x10000C5AC, symSize: 0x78 }
  - { offsetInCU: 0x19A99, offset: 0x19A99, size: 0x8, addend: 0x0, symName: __ZNSt3__16__moveB7v160006INS_17_ClassicAlgPolicyENS_16reverse_iteratorIPcEES4_S4_EENS_4pairIT0_T2_EES6_T1_S7_, symObjAddr: 0x8D54, symBinAddr: 0x10000C624, symSize: 0x64 }
  - { offsetInCU: 0x19B05, offset: 0x19B05, size: 0x8, addend: 0x0, symName: __ZNSt3__123__dispatch_copy_or_moveB7v160006INS_17_ClassicAlgPolicyENS_11__move_loopIS1_EENS_14__move_trivialENS_16reverse_iteratorIPcEES7_S7_EENS_4pairIT2_T4_EES9_T3_SA_, symObjAddr: 0x8DB8, symBinAddr: 0x10000C688, symSize: 0x64 }
  - { offsetInCU: 0x19B83, offset: 0x19B83, size: 0x8, addend: 0x0, symName: __ZNSt3__121__unwrap_and_dispatchB7v160006INS_10__overloadINS_11__move_loopINS_17_ClassicAlgPolicyEEENS_14__move_trivialEEENS_16reverse_iteratorIPcEES9_S9_Li0EEENS_4pairIT0_T2_EESB_T1_SC_, symObjAddr: 0x8E1C, symBinAddr: 0x10000C6EC, symSize: 0x12C }
  - { offsetInCU: 0x19C13, offset: 0x19C13, size: 0x8, addend: 0x0, symName: __ZNSt3__114__unwrap_rangeB7v160006INS_16reverse_iteratorIPcEES3_EENS_4pairIT0_S5_EET_S7_, symObjAddr: 0x8F48, symBinAddr: 0x10000C818, symSize: 0x84 }
  - { offsetInCU: 0x19DCD, offset: 0x19DCD, size: 0x8, addend: 0x0, symName: __ZNSt3__113__unwrap_iterB7v160006INS_16reverse_iteratorIPcEENS_18__unwrap_iter_implIS3_Lb0EEELi0EEEDTclsrT0_8__unwrapclsr3stdE7declvalIT_EEEES7_, symObjAddr: 0x906C, symBinAddr: 0x10000C93C, symSize: 0x44 }
  - { offsetInCU: 0x19E11, offset: 0x19E11, size: 0x8, addend: 0x0, symName: __ZNSt3__19make_pairB7v160006INS_16reverse_iteratorIPcEES3_EENS_4pairINS_18__unwrap_ref_decayIT_E4typeENS5_IT0_E4typeEEEOS6_OS9_, symObjAddr: 0x90B0, symBinAddr: 0x10000C980, symSize: 0x38 }
  - { offsetInCU: 0x19E60, offset: 0x19E60, size: 0x8, addend: 0x0, symName: __ZNSt3__114__rewrap_rangeB7v160006INS_16reverse_iteratorIPcEES3_EET_S4_T0_, symObjAddr: 0x90E8, symBinAddr: 0x10000C9B8, symSize: 0x5C }
  - { offsetInCU: 0x19EAC, offset: 0x19EAC, size: 0x8, addend: 0x0, symName: __ZNSt3__113__rewrap_iterB7v160006INS_16reverse_iteratorIPcEES3_NS_18__unwrap_iter_implIS3_Lb0EEEEET_S6_T0_, symObjAddr: 0x9144, symBinAddr: 0x10000CA14, symSize: 0x74 }
  - { offsetInCU: 0x19F01, offset: 0x19F01, size: 0x8, addend: 0x0, symName: __ZNSt3__1neB7v160006IPcS1_EEbRKNS_16reverse_iteratorIT_EERKNS2_IT0_EE, symObjAddr: 0x91B8, symBinAddr: 0x10000CA88, symSize: 0x48 }
  - { offsetInCU: 0x1A065, offset: 0x1A065, size: 0x8, addend: 0x0, symName: __ZNSt3__119__allocate_at_leastB7v160006INS_9allocatorINS_6vectorIcNS1_IcEEEEEEEENS_19__allocation_resultINS_16allocator_traitsIT_E7pointerEEERS8_m, symObjAddr: 0x9CB0, symBinAddr: 0x10000D580, symSize: 0x40 }
  - { offsetInCU: 0x1A0A8, offset: 0x1A0A8, size: 0x8, addend: 0x0, symName: __ZNSt3__142__uninitialized_allocator_move_if_noexceptB7v160006INS_9allocatorINS_6vectorIcNS1_IcEEEEEENS_16reverse_iteratorIPS4_EES8_S8_EET2_RT_T0_T1_S9_, symObjAddr: 0x9E68, symBinAddr: 0x10000D738, symSize: 0x12C }
  - { offsetInCU: 0x1A148, offset: 0x1A148, size: 0x8, addend: 0x0, symName: __ZNSt3__14swapB7v160006IPNS_6vectorIcNS_9allocatorIcEEEEEENS_9enable_ifIXaasr21is_move_constructibleIT_EE5valuesr18is_move_assignableIS7_EE5valueEvE4typeERS7_SA_, symObjAddr: 0x9FE0, symBinAddr: 0x10000D8B0, symSize: 0x3C }
  - { offsetInCU: 0x1A199, offset: 0x1A199, size: 0x8, addend: 0x0, symName: __ZNSt3__125__debug_db_invalidate_allB7v160006INS_6vectorINS1_IcNS_9allocatorIcEEEENS2_IS4_EEEEEEvPT_, symObjAddr: 0xA0E4, symBinAddr: 0x10000D9B4, symSize: 0x10 }
  - { offsetInCU: 0x1A1CA, offset: 0x1A1CA, size: 0x8, addend: 0x0, symName: __ZNSt3__122__make_exception_guardB7v160006INS_29_AllocatorDestroyRangeReverseINS_9allocatorINS_6vectorIcNS2_IcEEEEEENS_16reverse_iteratorIPS5_EEEEEENS_28__exception_guard_exceptionsIT_EESC_, symObjAddr: 0xA0F4, symBinAddr: 0x10000D9C4, symSize: 0x4C }
  - { offsetInCU: 0x1A200, offset: 0x1A200, size: 0x8, addend: 0x0, symName: __ZNSt3__1neB7v160006IPNS_6vectorIcNS_9allocatorIcEEEES5_EEbRKNS_16reverse_iteratorIT_EERKNS6_IT0_EE, symObjAddr: 0xA184, symBinAddr: 0x10000DA54, symSize: 0x48 }
  - { offsetInCU: 0x1A24C, offset: 0x1A24C, size: 0x8, addend: 0x0, symName: __ZNSt3__112__to_addressB7v160006INS_16reverse_iteratorIPNS_6vectorIcNS_9allocatorIcEEEEEEvEENS_5decayIDTclsr19__to_address_helperIT_EE6__callclsr3stdE7declvalIRKS9_EEEEE4typeESB_, symObjAddr: 0xA200, symBinAddr: 0x10000DAD0, symSize: 0x24 }
  - { offsetInCU: 0x1A282, offset: 0x1A282, size: 0x8, addend: 0x0, symName: __ZNSt3__115__debug_db_swapB7v160006INS_6vectorIcNS_9allocatorIcEEEEEEvPT_S6_, symObjAddr: 0xA4CC, symBinAddr: 0x10000DD9C, symSize: 0x14 }
  - { offsetInCU: 0x1A2EA, offset: 0x1A2EA, size: 0x8, addend: 0x0, symName: __ZNSt3__119__allocator_destroyB7v160006INS_9allocatorINS_6vectorIcNS1_IcEEEEEENS_16reverse_iteratorINS6_IPS4_EEEES9_EEvRT_T0_T1_, symObjAddr: 0xA69C, symBinAddr: 0x10000DF6C, symSize: 0x70 }
  - { offsetInCU: 0x1A34F, offset: 0x1A34F, size: 0x8, addend: 0x0, symName: __ZNSt3__1neB7v160006INS_16reverse_iteratorIPNS_6vectorIcNS_9allocatorIcEEEEEES7_EEbRKNS1_IT_EERKNS1_IT0_EE, symObjAddr: 0xA748, symBinAddr: 0x10000E018, symSize: 0x60 }
  - { offsetInCU: 0x1A39B, offset: 0x1A39B, size: 0x8, addend: 0x0, symName: __ZNSt3__112__to_addressB7v160006INS_16reverse_iteratorINS1_IPNS_6vectorIcNS_9allocatorIcEEEEEEEEvEENS_5decayIDTclsr19__to_address_helperIT_EE6__callclsr3stdE7declvalIRKSA_EEEEE4typeESC_, symObjAddr: 0xA7A8, symBinAddr: 0x10000E078, symSize: 0x24 }
  - { offsetInCU: 0x1A3FA, offset: 0x1A3FA, size: 0x8, addend: 0x0, symName: __ZNSt3__122__make_exception_guardB7v160006INS_6vectorIcNS_9allocatorIcEEE16__destroy_vectorEEENS_28__exception_guard_exceptionsIT_EES7_, symObjAddr: 0xACC4, symBinAddr: 0x10000E594, symSize: 0x40 }
  - { offsetInCU: 0x1A42F, offset: 0x1A42F, size: 0x8, addend: 0x0, symName: __ZNSt3__130__uninitialized_allocator_copyB7v160006INS_9allocatorIcEEPcS3_S3_EET2_RT_T0_T1_S4_, symObjAddr: 0xAEDC, symBinAddr: 0x10000E7AC, symSize: 0xF4 }
  - { offsetInCU: 0x1A4CD, offset: 0x1A4CD, size: 0x8, addend: 0x0, symName: __ZNSt3__122__make_exception_guardB7v160006INS_29_AllocatorDestroyRangeReverseINS_9allocatorIcEEPcEEEENS_28__exception_guard_exceptionsIT_EES7_, symObjAddr: 0xAFD0, symBinAddr: 0x10000E8A0, symSize: 0x4C }
  - { offsetInCU: 0x1A503, offset: 0x1A503, size: 0x8, addend: 0x0, symName: __ZNSt3__119__allocator_destroyB7v160006INS_9allocatorIcEENS_16reverse_iteratorIPcEES5_EEvRT_T0_T1_, symObjAddr: 0xB258, symBinAddr: 0x10000EB28, symSize: 0x70 }
  - { offsetInCU: 0x1A566, offset: 0x1A566, size: 0x8, addend: 0x0, symName: __ZNSt3__112__to_addressB7v160006INS_16reverse_iteratorIPcEEvEENS_5decayIDTclsr19__to_address_helperIT_EE6__callclsr3stdE7declvalIRKS5_EEEEE4typeES7_, symObjAddr: 0xB2C8, symBinAddr: 0x10000EB98, symSize: 0x24 }
  - { offsetInCU: 0x1A5C5, offset: 0x1A5C5, size: 0x8, addend: 0x0, symName: __ZNSt3__119__allocate_at_leastB7v160006INS_9allocatorINS_4pairIccEEEEEENS_19__allocation_resultINS_16allocator_traitsIT_E7pointerEEERS7_m, symObjAddr: 0xBB7C, symBinAddr: 0x10000F44C, symSize: 0x40 }
  - { offsetInCU: 0x1A608, offset: 0x1A608, size: 0x8, addend: 0x0, symName: __ZNSt3__142__uninitialized_allocator_move_if_noexceptB7v160006INS_9allocatorINS_4pairIccEEEENS_16reverse_iteratorIPS3_EES7_S7_EET2_RT_T0_T1_S8_, symObjAddr: 0xBD30, symBinAddr: 0x10000F600, symSize: 0x12C }
  - { offsetInCU: 0x1A6A8, offset: 0x1A6A8, size: 0x8, addend: 0x0, symName: __ZNSt3__14swapB7v160006IPNS_4pairIccEEEENS_9enable_ifIXaasr21is_move_constructibleIT_EE5valuesr18is_move_assignableIS5_EE5valueEvE4typeERS5_S8_, symObjAddr: 0xBEA8, symBinAddr: 0x10000F778, symSize: 0x3C }
  - { offsetInCU: 0x1A6F9, offset: 0x1A6F9, size: 0x8, addend: 0x0, symName: __ZNSt3__125__debug_db_invalidate_allB7v160006INS_6vectorINS_4pairIccEENS_9allocatorIS3_EEEEEEvPT_, symObjAddr: 0xBF90, symBinAddr: 0x10000F860, symSize: 0x10 }
  - { offsetInCU: 0x1A72A, offset: 0x1A72A, size: 0x8, addend: 0x0, symName: __ZNSt3__122__make_exception_guardB7v160006INS_29_AllocatorDestroyRangeReverseINS_9allocatorINS_4pairIccEEEENS_16reverse_iteratorIPS4_EEEEEENS_28__exception_guard_exceptionsIT_EESB_, symObjAddr: 0xBFA0, symBinAddr: 0x10000F870, symSize: 0x4C }
  - { offsetInCU: 0x1A760, offset: 0x1A760, size: 0x8, addend: 0x0, symName: __ZNSt3__1neB7v160006IPNS_4pairIccEES3_EEbRKNS_16reverse_iteratorIT_EERKNS4_IT0_EE, symObjAddr: 0xC030, symBinAddr: 0x10000F900, symSize: 0x48 }
  - { offsetInCU: 0x1A7AC, offset: 0x1A7AC, size: 0x8, addend: 0x0, symName: __ZNSt3__112__to_addressB7v160006INS_16reverse_iteratorIPNS_4pairIccEEEEvEENS_5decayIDTclsr19__to_address_helperIT_EE6__callclsr3stdE7declvalIRKS7_EEEEE4typeES9_, symObjAddr: 0xC0AC, symBinAddr: 0x10000F97C, symSize: 0x24 }
  - { offsetInCU: 0x1A80B, offset: 0x1A80B, size: 0x8, addend: 0x0, symName: __ZNSt3__119__allocator_destroyB7v160006INS_9allocatorINS_4pairIccEEEENS_16reverse_iteratorINS5_IPS3_EEEES8_EEvRT_T0_T1_, symObjAddr: 0xC384, symBinAddr: 0x10000FC54, symSize: 0x70 }
  - { offsetInCU: 0x1A870, offset: 0x1A870, size: 0x8, addend: 0x0, symName: __ZNSt3__1neB7v160006INS_16reverse_iteratorIPNS_4pairIccEEEES5_EEbRKNS1_IT_EERKNS1_IT0_EE, symObjAddr: 0xC430, symBinAddr: 0x10000FD00, symSize: 0x60 }
  - { offsetInCU: 0x1A8BC, offset: 0x1A8BC, size: 0x8, addend: 0x0, symName: __ZNSt3__112__to_addressB7v160006INS_16reverse_iteratorINS1_IPNS_4pairIccEEEEEEvEENS_5decayIDTclsr19__to_address_helperIT_EE6__callclsr3stdE7declvalIRKS8_EEEEE4typeESA_, symObjAddr: 0xC490, symBinAddr: 0x10000FD60, symSize: 0x24 }
  - { offsetInCU: 0x1A91B, offset: 0x1A91B, size: 0x8, addend: 0x0, symName: __ZNSt3__1neB7v160006ERKNS_21__tree_const_iteratorINS_12__value_typeIcP7adjNodeEEPNS_11__tree_nodeIS4_PvEElEESB_, symObjAddr: 0xCE98, symBinAddr: 0x100010768, symSize: 0x34 }
  - { offsetInCU: 0x1A9DC, offset: 0x1A9DC, size: 0x8, addend: 0x0, symName: __ZNSt3__119__debug_db_insert_cB7v160006INS_6vectorINS_4pairIicEENS_9allocatorIS3_EEEEEEvPT_, symObjAddr: 0xDDB4, symBinAddr: 0x100011684, symSize: 0x10 }
  - { offsetInCU: 0x1AA0D, offset: 0x1AA0D, size: 0x8, addend: 0x0, symName: __ZNSt3__19push_heapB7v160006INS_11__wrap_iterIPNS_4pairIicEEEENS_7greaterIS3_EEEEvT_S8_T0_, symObjAddr: 0xDEF8, symBinAddr: 0x1000117C8, symSize: 0x40 }
  - { offsetInCU: 0x1AA63, offset: 0x1AA63, size: 0x8, addend: 0x0, symName: __ZNSt3__119__allocate_at_leastB7v160006INS_9allocatorINS_4pairIicEEEEEENS_19__allocation_resultINS_16allocator_traitsIT_E7pointerEEERS7_m, symObjAddr: 0xE6E8, symBinAddr: 0x100011FB8, symSize: 0x40 }
  - { offsetInCU: 0x1AAA6, offset: 0x1AAA6, size: 0x8, addend: 0x0, symName: __ZNSt3__142__uninitialized_allocator_move_if_noexceptB7v160006INS_9allocatorINS_4pairIicEEEENS_16reverse_iteratorIPS3_EES7_S7_EET2_RT_T0_T1_S8_, symObjAddr: 0xE89C, symBinAddr: 0x10001216C, symSize: 0x12C }
  - { offsetInCU: 0x1AB46, offset: 0x1AB46, size: 0x8, addend: 0x0, symName: __ZNSt3__14swapB7v160006IPNS_4pairIicEEEENS_9enable_ifIXaasr21is_move_constructibleIT_EE5valuesr18is_move_assignableIS5_EE5valueEvE4typeERS5_S8_, symObjAddr: 0xEA14, symBinAddr: 0x1000122E4, symSize: 0x3C }
  - { offsetInCU: 0x1AB97, offset: 0x1AB97, size: 0x8, addend: 0x0, symName: __ZNSt3__125__debug_db_invalidate_allB7v160006INS_6vectorINS_4pairIicEENS_9allocatorIS3_EEEEEEvPT_, symObjAddr: 0xEAFC, symBinAddr: 0x1000123CC, symSize: 0x10 }
  - { offsetInCU: 0x1ABC8, offset: 0x1ABC8, size: 0x8, addend: 0x0, symName: __ZNSt3__122__make_exception_guardB7v160006INS_29_AllocatorDestroyRangeReverseINS_9allocatorINS_4pairIicEEEENS_16reverse_iteratorIPS4_EEEEEENS_28__exception_guard_exceptionsIT_EESB_, symObjAddr: 0xEB0C, symBinAddr: 0x1000123DC, symSize: 0x4C }
  - { offsetInCU: 0x1ABFE, offset: 0x1ABFE, size: 0x8, addend: 0x0, symName: __ZNSt3__1neB7v160006IPNS_4pairIicEES3_EEbRKNS_16reverse_iteratorIT_EERKNS4_IT0_EE, symObjAddr: 0xEB9C, symBinAddr: 0x10001246C, symSize: 0x48 }
  - { offsetInCU: 0x1AC4A, offset: 0x1AC4A, size: 0x8, addend: 0x0, symName: __ZNSt3__112__to_addressB7v160006INS_16reverse_iteratorIPNS_4pairIicEEEEvEENS_5decayIDTclsr19__to_address_helperIT_EE6__callclsr3stdE7declvalIRKS7_EEEEE4typeES9_, symObjAddr: 0xEBE4, symBinAddr: 0x1000124B4, symSize: 0x24 }
  - { offsetInCU: 0x1ACA9, offset: 0x1ACA9, size: 0x8, addend: 0x0, symName: __ZNSt3__119__allocator_destroyB7v160006INS_9allocatorINS_4pairIicEEEENS_16reverse_iteratorINS5_IPS3_EEEES8_EEvRT_T0_T1_, symObjAddr: 0xEE94, symBinAddr: 0x100012764, symSize: 0x70 }
  - { offsetInCU: 0x1AD0E, offset: 0x1AD0E, size: 0x8, addend: 0x0, symName: __ZNSt3__1neB7v160006INS_16reverse_iteratorIPNS_4pairIicEEEES5_EEbRKNS1_IT_EERKNS1_IT0_EE, symObjAddr: 0xEF40, symBinAddr: 0x100012810, symSize: 0x60 }
  - { offsetInCU: 0x1AD5A, offset: 0x1AD5A, size: 0x8, addend: 0x0, symName: __ZNSt3__112__to_addressB7v160006INS_16reverse_iteratorINS1_IPNS_4pairIicEEEEEEvEENS_5decayIDTclsr19__to_address_helperIT_EE6__callclsr3stdE7declvalIRKS8_EEEEE4typeESA_, symObjAddr: 0xEFA0, symBinAddr: 0x100012870, symSize: 0x24 }
  - { offsetInCU: 0x1ADB9, offset: 0x1ADB9, size: 0x8, addend: 0x0, symName: __ZNSt3__111__push_heapB7v160006INS_17_ClassicAlgPolicyENS_11__wrap_iterIPNS_4pairIicEEEENS_7greaterIS4_EEEEvT0_S9_RT1_, symObjAddr: 0xF308, symBinAddr: 0x100012BD8, symSize: 0x5C }
  - { offsetInCU: 0x1AE26, offset: 0x1AE26, size: 0x8, addend: 0x0, symName: __ZNSt3__1miB7v160006IPNS_4pairIicEES3_EEDTmicldtfp_4baseEcldtfp0_4baseEERKNS_11__wrap_iterIT_EERKNS5_IT0_EE, symObjAddr: 0xF364, symBinAddr: 0x100012C34, symSize: 0x48 }
  - { offsetInCU: 0x1AE72, offset: 0x1AE72, size: 0x8, addend: 0x0, symName: __ZNSt3__19__sift_upB7v160006INS_17_ClassicAlgPolicyERNS_7greaterINS_4pairIicEEEENS_11__wrap_iterIPS4_EEEEvT1_SA_OT0_NS_15iterator_traitsISA_E15difference_typeE, symObjAddr: 0xF3AC, symBinAddr: 0x100012C7C, symSize: 0x15C }
  - { offsetInCU: 0x1AF46, offset: 0x1AF46, size: 0x8, addend: 0x0, symName: __ZNSt3__1gtB7v160006IicEEbRKNS_4pairIT_T0_EES6_, symObjAddr: 0xF648, symBinAddr: 0x100012F18, symSize: 0x30 }
  - { offsetInCU: 0x1AF95, offset: 0x1AF95, size: 0x8, addend: 0x0, symName: __ZNSt3__1ltB7v160006IicEEbRKNS_4pairIT_T0_EES6_, symObjAddr: 0xF678, symBinAddr: 0x100012F48, symSize: 0x98 }
  - { offsetInCU: 0x1AFE4, offset: 0x1AFE4, size: 0x8, addend: 0x0, symName: __ZNSt3__18pop_heapB7v160006INS_11__wrap_iterIPNS_4pairIicEEEENS_7greaterIS3_EEEEvT_S8_T0_, symObjAddr: 0xF7E8, symBinAddr: 0x1000130B8, symSize: 0x58 }
  - { offsetInCU: 0x1B048, offset: 0x1B048, size: 0x8, addend: 0x0, symName: __ZNSt3__110__pop_heapB7v160006INS_17_ClassicAlgPolicyENS_7greaterINS_4pairIicEEEENS_11__wrap_iterIPS4_EEEEvT1_S9_RT0_NS_15iterator_traitsIS9_E15difference_typeE, symObjAddr: 0xF86C, symBinAddr: 0x10001313C, symSize: 0x128 }
  - { offsetInCU: 0x1B0F8, offset: 0x1B0F8, size: 0x8, addend: 0x0, symName: __ZNSt3__1eqB7v160006IPNS_4pairIicEEEEbRKNS_11__wrap_iterIT_EES8_, symObjAddr: 0xFADC, symBinAddr: 0x1000133AC, symSize: 0x48 }
  - { offsetInCU: 0x1B13B, offset: 0x1B13B, size: 0x8, addend: 0x0, symName: __ZNSt3__120__throw_out_of_rangeB7v160006EPKc, symObjAddr: 0xFCA0, symBinAddr: 0x100013570, symSize: 0x64 }
  - { offsetInCU: 0x1B165, offset: 0x1B165, size: 0x8, addend: 0x0, symName: __ZNSt3__119__debug_db_insert_cB7v160006INS_6vectorIiNS_9allocatorIiEEEEEEvPT_, symObjAddr: 0xFE18, symBinAddr: 0x1000136E8, symSize: 0x10 }
  - { offsetInCU: 0x1B196, offset: 0x1B196, size: 0x8, addend: 0x0, symName: __ZNSt3__118__debug_db_erase_cB7v160006INS_6vectorIiNS_9allocatorIiEEEEEEvPT_, symObjAddr: 0x100DC, symBinAddr: 0x1000139AC, symSize: 0x10 }
  - { offsetInCU: 0x1B1C7, offset: 0x1B1C7, size: 0x8, addend: 0x0, symName: __ZNSt3__112__to_addressB7v160006IiEEPT_S2_, symObjAddr: 0x101F8, symBinAddr: 0x100013AC8, symSize: 0x14 }
  - { offsetInCU: 0x1B1FC, offset: 0x1B1FC, size: 0x8, addend: 0x0, symName: __ZNSt3__1neB7v160006ERKNS_15__tree_iteratorINS_12__value_typeIciEEPNS_11__tree_nodeIS2_PvEElEES9_, symObjAddr: 0x104C0, symBinAddr: 0x100013D90, symSize: 0x34 }
  - { offsetInCU: 0x1B239, offset: 0x1B239, size: 0x8, addend: 0x0, symName: __ZNSt3__119__allocate_at_leastB7v160006INS_9allocatorIiEEEENS_19__allocation_resultINS_16allocator_traitsIT_E7pointerEEERS5_m, symObjAddr: 0x10C7C, symBinAddr: 0x10001454C, symSize: 0x40 }
  - { offsetInCU: 0x1B27C, offset: 0x1B27C, size: 0x8, addend: 0x0, symName: __ZNSt3__142__uninitialized_allocator_move_if_noexceptB7v160006INS_9allocatorIiEENS_16reverse_iteratorIPiEES5_ivEET1_RT_T0_S9_S6_, symObjAddr: 0x10E30, symBinAddr: 0x100014700, symSize: 0x78 }
  - { offsetInCU: 0x1B2F9, offset: 0x1B2F9, size: 0x8, addend: 0x0, symName: __ZNSt3__14swapB7v160006IPiEENS_9enable_ifIXaasr21is_move_constructibleIT_EE5valuesr18is_move_assignableIS3_EE5valueEvE4typeERS3_S6_, symObjAddr: 0x10EF4, symBinAddr: 0x1000147C4, symSize: 0x3C }
  - { offsetInCU: 0x1B34A, offset: 0x1B34A, size: 0x8, addend: 0x0, symName: __ZNSt3__125__debug_db_invalidate_allB7v160006INS_6vectorIiNS_9allocatorIiEEEEEEvPT_, symObjAddr: 0x10FDC, symBinAddr: 0x1000148AC, symSize: 0x10 }
  - { offsetInCU: 0x1B37B, offset: 0x1B37B, size: 0x8, addend: 0x0, symName: __ZNSt3__14moveB7v160006INS_16reverse_iteratorIPiEES3_EET0_T_S5_S4_, symObjAddr: 0x10FEC, symBinAddr: 0x1000148BC, symSize: 0x78 }
  - { offsetInCU: 0x1B3D5, offset: 0x1B3D5, size: 0x8, addend: 0x0, symName: __ZNSt3__16__moveB7v160006INS_17_ClassicAlgPolicyENS_16reverse_iteratorIPiEES4_S4_EENS_4pairIT0_T2_EES6_T1_S7_, symObjAddr: 0x11064, symBinAddr: 0x100014934, symSize: 0x64 }
  - { offsetInCU: 0x1B441, offset: 0x1B441, size: 0x8, addend: 0x0, symName: __ZNSt3__123__dispatch_copy_or_moveB7v160006INS_17_ClassicAlgPolicyENS_11__move_loopIS1_EENS_14__move_trivialENS_16reverse_iteratorIPiEES7_S7_EENS_4pairIT2_T4_EES9_T3_SA_, symObjAddr: 0x110C8, symBinAddr: 0x100014998, symSize: 0x64 }
  - { offsetInCU: 0x1B4BF, offset: 0x1B4BF, size: 0x8, addend: 0x0, symName: __ZNSt3__121__unwrap_and_dispatchB7v160006INS_10__overloadINS_11__move_loopINS_17_ClassicAlgPolicyEEENS_14__move_trivialEEENS_16reverse_iteratorIPiEES9_S9_Li0EEENS_4pairIT0_T2_EESB_T1_SC_, symObjAddr: 0x1112C, symBinAddr: 0x1000149FC, symSize: 0x12C }
  - { offsetInCU: 0x1B54F, offset: 0x1B54F, size: 0x8, addend: 0x0, symName: __ZNSt3__114__unwrap_rangeB7v160006INS_16reverse_iteratorIPiEES3_EENS_4pairIT0_S5_EET_S7_, symObjAddr: 0x11258, symBinAddr: 0x100014B28, symSize: 0x84 }
  - { offsetInCU: 0x1B66F, offset: 0x1B66F, size: 0x8, addend: 0x0, symName: __ZNSt3__113__unwrap_iterB7v160006INS_16reverse_iteratorIPiEENS_18__unwrap_iter_implIS3_Lb0EEELi0EEEDTclsrT0_8__unwrapclsr3stdE7declvalIT_EEEES7_, symObjAddr: 0x1137C, symBinAddr: 0x100014C4C, symSize: 0x44 }
  - { offsetInCU: 0x1B6B3, offset: 0x1B6B3, size: 0x8, addend: 0x0, symName: __ZNSt3__19make_pairB7v160006INS_16reverse_iteratorIPiEES3_EENS_4pairINS_18__unwrap_ref_decayIT_E4typeENS5_IT0_E4typeEEEOS6_OS9_, symObjAddr: 0x113C0, symBinAddr: 0x100014C90, symSize: 0x38 }
  - { offsetInCU: 0x1B702, offset: 0x1B702, size: 0x8, addend: 0x0, symName: __ZNSt3__114__rewrap_rangeB7v160006INS_16reverse_iteratorIPiEES3_EET_S4_T0_, symObjAddr: 0x113F8, symBinAddr: 0x100014CC8, symSize: 0x5C }
  - { offsetInCU: 0x1B74E, offset: 0x1B74E, size: 0x8, addend: 0x0, symName: __ZNSt3__113__rewrap_iterB7v160006INS_16reverse_iteratorIPiEES3_NS_18__unwrap_iter_implIS3_Lb0EEEEET_S6_T0_, symObjAddr: 0x11454, symBinAddr: 0x100014D24, symSize: 0x74 }
  - { offsetInCU: 0x1B7A3, offset: 0x1B7A3, size: 0x8, addend: 0x0, symName: __ZNSt3__1neB7v160006IPiS1_EEbRKNS_16reverse_iteratorIT_EERKNS2_IT0_EE, symObjAddr: 0x114C8, symBinAddr: 0x100014D98, symSize: 0x48 }
  - { offsetInCU: 0x1B85B, offset: 0x1B85B, size: 0x8, addend: 0x0, symName: __ZNSt3__119__debug_db_insert_cB7v160006INS_6vectorINS1_IiNS_9allocatorIiEEEENS2_IS4_EEEEEEvPT_, symObjAddr: 0x118EC, symBinAddr: 0x1000151BC, symSize: 0x10 }
  - { offsetInCU: 0x1B88C, offset: 0x1B88C, size: 0x8, addend: 0x0, symName: __ZNSt3__118__debug_db_erase_cB7v160006INS_6vectorINS1_IiNS_9allocatorIiEEEENS2_IS4_EEEEEEvPT_, symObjAddr: 0x11BCC, symBinAddr: 0x10001549C, symSize: 0x10 }
  - { offsetInCU: 0x1B8BD, offset: 0x1B8BD, size: 0x8, addend: 0x0, symName: __ZNSt3__112__to_addressB7v160006INS_6vectorIiNS_9allocatorIiEEEEEEPT_S6_, symObjAddr: 0x11CE8, symBinAddr: 0x1000155B8, symSize: 0x14 }
  - { offsetInCU: 0x1B8F2, offset: 0x1B8F2, size: 0x8, addend: 0x0, symName: __ZNSt3__122__make_exception_guardB7v160006INS_6vectorIiNS_9allocatorIiEEE16__destroy_vectorEEENS_28__exception_guard_exceptionsIT_EES7_, symObjAddr: 0x12328, symBinAddr: 0x100015BF8, symSize: 0x40 }
  - { offsetInCU: 0x1B927, offset: 0x1B927, size: 0x8, addend: 0x0, symName: __ZNSt3__130__uninitialized_allocator_copyB7v160006INS_9allocatorIiEEPiS3_S3_EET2_RT_T0_T1_S4_, symObjAddr: 0x1259C, symBinAddr: 0x100015E6C, symSize: 0xF4 }
  - { offsetInCU: 0x1B9C5, offset: 0x1B9C5, size: 0x8, addend: 0x0, symName: __ZNSt3__122__make_exception_guardB7v160006INS_29_AllocatorDestroyRangeReverseINS_9allocatorIiEEPiEEEENS_28__exception_guard_exceptionsIT_EES7_, symObjAddr: 0x12690, symBinAddr: 0x100015F60, symSize: 0x4C }
  - { offsetInCU: 0x1B9FB, offset: 0x1B9FB, size: 0x8, addend: 0x0, symName: __ZNSt3__119__allocator_destroyB7v160006INS_9allocatorIiEENS_16reverse_iteratorIPiEES5_EEvRT_T0_T1_, symObjAddr: 0x12918, symBinAddr: 0x1000161E8, symSize: 0x70 }
  - { offsetInCU: 0x1BA5E, offset: 0x1BA5E, size: 0x8, addend: 0x0, symName: __ZNSt3__112__to_addressB7v160006INS_16reverse_iteratorIPiEEvEENS_5decayIDTclsr19__to_address_helperIT_EE6__callclsr3stdE7declvalIRKS5_EEEEE4typeES7_, symObjAddr: 0x12988, symBinAddr: 0x100016258, symSize: 0x24 }
  - { offsetInCU: 0x1BABD, offset: 0x1BABD, size: 0x8, addend: 0x0, symName: __ZNSt3__119__allocate_at_leastB7v160006INS_9allocatorINS_6vectorIiNS1_IiEEEEEEEENS_19__allocation_resultINS_16allocator_traitsIT_E7pointerEEERS8_m, symObjAddr: 0x12EE8, symBinAddr: 0x1000167B8, symSize: 0x40 }
  - { offsetInCU: 0x1BB00, offset: 0x1BB00, size: 0x8, addend: 0x0, symName: __ZNSt3__142__uninitialized_allocator_move_if_noexceptB7v160006INS_9allocatorINS_6vectorIiNS1_IiEEEEEENS_16reverse_iteratorIPS4_EES8_S8_EET2_RT_T0_T1_S9_, symObjAddr: 0x130A0, symBinAddr: 0x100016970, symSize: 0x12C }
  - { offsetInCU: 0x1BBA0, offset: 0x1BBA0, size: 0x8, addend: 0x0, symName: __ZNSt3__14swapB7v160006IPNS_6vectorIiNS_9allocatorIiEEEEEENS_9enable_ifIXaasr21is_move_constructibleIT_EE5valuesr18is_move_assignableIS7_EE5valueEvE4typeERS7_SA_, symObjAddr: 0x13218, symBinAddr: 0x100016AE8, symSize: 0x3C }
  - { offsetInCU: 0x1BBF1, offset: 0x1BBF1, size: 0x8, addend: 0x0, symName: __ZNSt3__125__debug_db_invalidate_allB7v160006INS_6vectorINS1_IiNS_9allocatorIiEEEENS2_IS4_EEEEEEvPT_, symObjAddr: 0x1331C, symBinAddr: 0x100016BEC, symSize: 0x10 }
  - { offsetInCU: 0x1BC22, offset: 0x1BC22, size: 0x8, addend: 0x0, symName: __ZNSt3__122__make_exception_guardB7v160006INS_29_AllocatorDestroyRangeReverseINS_9allocatorINS_6vectorIiNS2_IiEEEEEENS_16reverse_iteratorIPS5_EEEEEENS_28__exception_guard_exceptionsIT_EESC_, symObjAddr: 0x1332C, symBinAddr: 0x100016BFC, symSize: 0x4C }
  - { offsetInCU: 0x1BC58, offset: 0x1BC58, size: 0x8, addend: 0x0, symName: __ZNSt3__1neB7v160006IPNS_6vectorIiNS_9allocatorIiEEEES5_EEbRKNS_16reverse_iteratorIT_EERKNS6_IT0_EE, symObjAddr: 0x133BC, symBinAddr: 0x100016C8C, symSize: 0x48 }
  - { offsetInCU: 0x1BCA4, offset: 0x1BCA4, size: 0x8, addend: 0x0, symName: __ZNSt3__112__to_addressB7v160006INS_16reverse_iteratorIPNS_6vectorIiNS_9allocatorIiEEEEEEvEENS_5decayIDTclsr19__to_address_helperIT_EE6__callclsr3stdE7declvalIRKS9_EEEEE4typeESB_, symObjAddr: 0x13438, symBinAddr: 0x100016D08, symSize: 0x24 }
  - { offsetInCU: 0x1BCDA, offset: 0x1BCDA, size: 0x8, addend: 0x0, symName: __ZNSt3__115__debug_db_swapB7v160006INS_6vectorIiNS_9allocatorIiEEEEEEvPT_S6_, symObjAddr: 0x136C8, symBinAddr: 0x100016F98, symSize: 0x14 }
  - { offsetInCU: 0x1BD42, offset: 0x1BD42, size: 0x8, addend: 0x0, symName: __ZNSt3__119__allocator_destroyB7v160006INS_9allocatorINS_6vectorIiNS1_IiEEEEEENS_16reverse_iteratorINS6_IPS4_EEEES9_EEvRT_T0_T1_, symObjAddr: 0x1383C, symBinAddr: 0x10001710C, symSize: 0x70 }
  - { offsetInCU: 0x1BDA7, offset: 0x1BDA7, size: 0x8, addend: 0x0, symName: __ZNSt3__1neB7v160006INS_16reverse_iteratorIPNS_6vectorIiNS_9allocatorIiEEEEEES7_EEbRKNS1_IT_EERKNS1_IT0_EE, symObjAddr: 0x138E8, symBinAddr: 0x1000171B8, symSize: 0x60 }
  - { offsetInCU: 0x1BDF3, offset: 0x1BDF3, size: 0x8, addend: 0x0, symName: __ZNSt3__112__to_addressB7v160006INS_16reverse_iteratorINS1_IPNS_6vectorIiNS_9allocatorIiEEEEEEEEvEENS_5decayIDTclsr19__to_address_helperIT_EE6__callclsr3stdE7declvalIRKSA_EEEEE4typeESC_, symObjAddr: 0x13948, symBinAddr: 0x100017218, symSize: 0x24 }
  - { offsetInCU: 0x1BEA3, offset: 0x1BEA3, size: 0x8, addend: 0x0, symName: __ZNSt3__18distanceB7v160006IPiEENS_15iterator_traitsIT_E15difference_typeES3_S3_, symObjAddr: 0x15260, symBinAddr: 0x100018B30, symSize: 0x2C }
  - { offsetInCU: 0x1BEE6, offset: 0x1BEE6, size: 0x8, addend: 0x0, symName: __ZNSt3__14copyB7v160006IPiS1_EET0_T_S3_S2_, symObjAddr: 0x152DC, symBinAddr: 0x100018BAC, symSize: 0x40 }
  - { offsetInCU: 0x1BF40, offset: 0x1BF40, size: 0x8, addend: 0x0, symName: __ZNSt3__110__distanceB7v160006IPiEENS_15iterator_traitsIT_E15difference_typeES3_S3_NS_26random_access_iterator_tagE, symObjAddr: 0x15408, symBinAddr: 0x100018CD8, symSize: 0x28 }
  - { offsetInCU: 0x1BF8D, offset: 0x1BF8D, size: 0x8, addend: 0x0, symName: __ZNSt3__121__convert_to_integralB7v160006Em, symObjAddr: 0x15430, symBinAddr: 0x100018D00, symSize: 0x14 }
  - { offsetInCU: 0x1BFB9, offset: 0x1BFB9, size: 0x8, addend: 0x0, symName: __ZNSt3__19__advanceB7v160006IPiEEvRT_NS_15iterator_traitsIS2_E15difference_typeENS_26random_access_iterator_tagE, symObjAddr: 0x15444, symBinAddr: 0x100018D14, symSize: 0x28 }
  - { offsetInCU: 0x1C002, offset: 0x1C002, size: 0x8, addend: 0x0, symName: __ZNSt3__16__copyB7v160006INS_17_ClassicAlgPolicyEPiS2_S2_EENS_4pairIT0_T2_EES4_T1_S5_, symObjAddr: 0x1546C, symBinAddr: 0x100018D3C, symSize: 0x44 }
  - { offsetInCU: 0x1C06E, offset: 0x1C06E, size: 0x8, addend: 0x0, symName: __ZNSt3__123__dispatch_copy_or_moveB7v160006INS_17_ClassicAlgPolicyENS_11__copy_loopIS1_EENS_14__copy_trivialEPiS5_S5_EENS_4pairIT2_T4_EES7_T3_S8_, symObjAddr: 0x154B0, symBinAddr: 0x100018D80, symSize: 0x44 }
  - { offsetInCU: 0x1C0EC, offset: 0x1C0EC, size: 0x8, addend: 0x0, symName: __ZNSt3__121__unwrap_and_dispatchB7v160006INS_10__overloadINS_11__copy_loopINS_17_ClassicAlgPolicyEEENS_14__copy_trivialEEEPiS7_S7_Li0EEENS_4pairIT0_T2_EES9_T1_SA_, symObjAddr: 0x154F4, symBinAddr: 0x100018DC4, symSize: 0xB4 }
  - { offsetInCU: 0x1C17A, offset: 0x1C17A, size: 0x8, addend: 0x0, symName: __ZNSt3__114__unwrap_rangeB7v160006IPiS1_EENS_4pairIT0_S3_EET_S5_, symObjAddr: 0x155A8, symBinAddr: 0x100018E78, symSize: 0x60 }
  - { offsetInCU: 0x1C30F, offset: 0x1C30F, size: 0x8, addend: 0x0, symName: __ZNSt3__113__unwrap_iterB7v160006IPiNS_18__unwrap_iter_implIS1_Lb1EEELi0EEEDTclsrT0_8__unwrapclsr3stdE7declvalIT_EEEES5_, symObjAddr: 0x15650, symBinAddr: 0x100018F20, symSize: 0x24 }
  - { offsetInCU: 0x1C353, offset: 0x1C353, size: 0x8, addend: 0x0, symName: __ZNSt3__19make_pairB7v160006IPiS1_EENS_4pairINS_18__unwrap_ref_decayIT_E4typeENS3_IT0_E4typeEEEOS4_OS7_, symObjAddr: 0x15674, symBinAddr: 0x100018F44, symSize: 0x38 }
  - { offsetInCU: 0x1C3A2, offset: 0x1C3A2, size: 0x8, addend: 0x0, symName: __ZNSt3__114__rewrap_rangeB7v160006IPiS1_EET_S2_T0_, symObjAddr: 0x156AC, symBinAddr: 0x100018F7C, symSize: 0x2C }
  - { offsetInCU: 0x1C3EE, offset: 0x1C3EE, size: 0x8, addend: 0x0, symName: __ZNSt3__113__rewrap_iterB7v160006IPiS1_NS_18__unwrap_iter_implIS1_Lb1EEEEET_S4_T0_, symObjAddr: 0x156D8, symBinAddr: 0x100018FA8, symSize: 0x3C }
  - { offsetInCU: 0x1C443, offset: 0x1C443, size: 0x8, addend: 0x0, symName: __ZNSt3__119__copy_trivial_implB7v160006IiiEENS_4pairIPT_PT0_EES3_S3_S5_, symObjAddr: 0x15714, symBinAddr: 0x100018FE4, symSize: 0x84 }
  - { offsetInCU: 0x1C4AB, offset: 0x1C4AB, size: 0x8, addend: 0x0, symName: __ZNSt3__19make_pairB7v160006IRPiS1_EENS_4pairINS_18__unwrap_ref_decayIT_E4typeENS4_IT0_E4typeEEEOS5_OS8_, symObjAddr: 0x15798, symBinAddr: 0x100019068, symSize: 0x38 }
  - { offsetInCU: 0x1C54D, offset: 0x1C54D, size: 0x8, addend: 0x0, symName: __ZNSt3__1neB7v160006ERKNS_15__tree_iteratorINS_12__value_typeIcNS_6vectorIiNS_9allocatorIiEEEEEEPNS_11__tree_nodeIS6_PvEElEESD_, symObjAddr: 0x15B48, symBinAddr: 0x100019418, symSize: 0x34 }
  - { offsetInCU: 0x1C58A, offset: 0x1C58A, size: 0x8, addend: 0x0, symName: __ZNSt3__1eqB7v160006ERKNS_15__tree_iteratorINS_12__value_typeIcNS_6vectorIiNS_9allocatorIiEEEEEEPNS_11__tree_nodeIS6_PvEElEESD_, symObjAddr: 0x15B7C, symBinAddr: 0x10001944C, symSize: 0x30 }
  - { offsetInCU: 0x1C5C7, offset: 0x1C5C7, size: 0x8, addend: 0x0, symName: __ZNSt3__122__make_exception_guardB7v160006INS_6vectorINS_4pairIccEENS_9allocatorIS3_EEE16__destroy_vectorEEENS_28__exception_guard_exceptionsIT_EES9_, symObjAddr: 0x15DD4, symBinAddr: 0x1000196A4, symSize: 0x40 }
  - { offsetInCU: 0x1C5FC, offset: 0x1C5FC, size: 0x8, addend: 0x0, symName: __ZNSt3__130__uninitialized_allocator_copyB7v160006INS_9allocatorINS_4pairIccEEEEPS3_S5_S5_EET2_RT_T0_T1_S6_, symObjAddr: 0x16048, symBinAddr: 0x100019918, symSize: 0xF4 }
  - { offsetInCU: 0x1C69A, offset: 0x1C69A, size: 0x8, addend: 0x0, symName: __ZNSt3__122__make_exception_guardB7v160006INS_29_AllocatorDestroyRangeReverseINS_9allocatorINS_4pairIccEEEEPS4_EEEENS_28__exception_guard_exceptionsIT_EES9_, symObjAddr: 0x1613C, symBinAddr: 0x100019A0C, symSize: 0x4C }
  - { offsetInCU: 0x1C6D0, offset: 0x1C6D0, size: 0x8, addend: 0x0, symName: __ZNSt3__119__allocator_destroyB7v160006INS_9allocatorINS_4pairIccEEEENS_16reverse_iteratorIPS3_EES7_EEvRT_T0_T1_, symObjAddr: 0x163C4, symBinAddr: 0x100019C94, symSize: 0x70 }
  - { offsetInCU: 0x1C733, offset: 0x1C733, size: 0x8, addend: 0x0, symName: __ZNSt3__1neB7v160006ERKNS_15__tree_iteratorINS_12__value_typeIcP7adjNodeEEPNS_11__tree_nodeIS4_PvEElEESB_, symObjAddr: 0x16484, symBinAddr: 0x100019D54, symSize: 0x34 }
  - { offsetInCU: 0x1C770, offset: 0x1C770, size: 0x8, addend: 0x0, symName: __ZNSt3__1eqB7v160006ERKNS_15__tree_iteratorINS_12__value_typeIcP7adjNodeEEPNS_11__tree_nodeIS4_PvEElEESB_, symObjAddr: 0x164B8, symBinAddr: 0x100019D88, symSize: 0x30 }
  - { offsetInCU: 0x1CDF3, offset: 0x1CDF3, size: 0x8, addend: 0x0, symName: __ZSt28__throw_bad_array_new_lengthB7v160006v, symObjAddr: 0x42E0, symBinAddr: 0x100007BB0, symSize: 0x34 }
  - { offsetInCU: 0x1D010, offset: 0x1D010, size: 0x8, addend: 0x0, symName: _graph, symObjAddr: 0xC6A68, symBinAddr: 0x100020018, symSize: 0x0 }
  - { offsetInCU: 0x1D322, offset: 0x1D322, size: 0x8, addend: 0x0, symName: _f1, symObjAddr: 0xC6A80, symBinAddr: 0x100020030, symSize: 0x0 }
  - { offsetInCU: 0x1D337, offset: 0x1D337, size: 0x8, addend: 0x0, symName: _f2, symObjAddr: 0xC6A81, symBinAddr: 0x100020031, symSize: 0x0 }
  - { offsetInCU: 0x1D34C, offset: 0x1D34C, size: 0x8, addend: 0x0, symName: _f3, symObjAddr: 0xC6A82, symBinAddr: 0x100020032, symSize: 0x0 }
  - { offsetInCU: 0x1D376, offset: 0x1D376, size: 0x8, addend: 0x0, symName: _total, symObjAddr: 0xC6A88, symBinAddr: 0x100020038, symSize: 0x0 }
  - { offsetInCU: 0x1D674, offset: 0x1D674, size: 0x8, addend: 0x0, symName: _friends, symObjAddr: 0xC6AA0, symBinAddr: 0x100020050, symSize: 0x0 }
  - { offsetInCU: 0x1E360, offset: 0x1E360, size: 0x8, addend: 0x0, symName: __ZNSt3__16vectorIcNS_9allocatorIcEEE26__swap_out_circular_bufferERNS_14__split_bufferIcRS2_EE, symObjAddr: 0x83D0, symBinAddr: 0x10000BCA0, symSize: 0x118 }
  - { offsetInCU: 0x1E3B7, offset: 0x1E3B7, size: 0x8, addend: 0x0, symName: __ZNSt3__16vectorINS0_IcNS_9allocatorIcEEEENS1_IS3_EEE26__swap_out_circular_bufferERNS_14__split_bufferIS3_RS4_EE, symObjAddr: 0x9938, symBinAddr: 0x10000D208, symSize: 0x118 }
  - { offsetInCU: 0x1E48B, offset: 0x1E48B, size: 0x8, addend: 0x0, symName: __ZNSt3__16vectorINS_4pairIccEENS_9allocatorIS2_EEE26__swap_out_circular_bufferERNS_14__split_bufferIS2_RS4_EE, symObjAddr: 0xB814, symBinAddr: 0x10000F0E4, symSize: 0x118 }
  - { offsetInCU: 0x1E84D, offset: 0x1E84D, size: 0x8, addend: 0x0, symName: __ZNSt3__16vectorINS_4pairIicEENS_9allocatorIS2_EEE26__swap_out_circular_bufferERNS_14__split_bufferIS2_RS4_EE, symObjAddr: 0xE380, symBinAddr: 0x100011C50, symSize: 0x118 }
  - { offsetInCU: 0x1E8F9, offset: 0x1E8F9, size: 0x8, addend: 0x0, symName: __ZNSt3__16vectorIiNS_9allocatorIiEEE26__swap_out_circular_bufferERNS_14__split_bufferIiRS2_EE, symObjAddr: 0x10914, symBinAddr: 0x1000141E4, symSize: 0x118 }
  - { offsetInCU: 0x1E996, offset: 0x1E996, size: 0x8, addend: 0x0, symName: __ZNSt3__16vectorINS0_IiNS_9allocatorIiEEEENS1_IS3_EEE26__swap_out_circular_bufferERNS_14__split_bufferIS3_RS4_EE, symObjAddr: 0x12B70, symBinAddr: 0x100016440, symSize: 0x118 }
  - { offsetInCU: 0x20C36, offset: 0x20C36, size: 0x8, addend: 0x0, symName: __Z14displayAdjListP7adjNodec, symObjAddr: 0x0, symBinAddr: 0x1000038D0, symSize: 0xB4 }
  - { offsetInCU: 0x20C6D, offset: 0x20C6D, size: 0x8, addend: 0x0, symName: __ZNSt3__113basic_ostreamIcNS_11char_traitsIcEEElsB7v160006EPFRS3_S4_E, symObjAddr: 0x130, symBinAddr: 0x100003A00, symSize: 0x2C }
  - { offsetInCU: 0x20CA1, offset: 0x20CA1, size: 0x8, addend: 0x0, symName: __ZNSt3__16vectorINS_4pairIccEENS_9allocatorIS2_EEEC1B7v160006Ev, symObjAddr: 0x1B4, symBinAddr: 0x100003A84, symSize: 0x2C }
  - { offsetInCU: 0x20CCB, offset: 0x20CCB, size: 0x8, addend: 0x0, symName: __ZNSt3__16vectorINS_4pairIccEENS_9allocatorIS2_EEED1B7v160006Ev, symObjAddr: 0x1E0, symBinAddr: 0x100003AB0, symSize: 0x2C }
  - { offsetInCU: 0x20CF5, offset: 0x20CF5, size: 0x8, addend: 0x0, symName: __ZNSt3__16vectorINS0_IcNS_9allocatorIcEEEENS1_IS3_EEEC1B7v160006Ev, symObjAddr: 0x20C, symBinAddr: 0x100003ADC, symSize: 0x2C }
  - { offsetInCU: 0x20D1F, offset: 0x20D1F, size: 0x8, addend: 0x0, symName: __ZNSt3__16vectorINS0_IcNS_9allocatorIcEEEENS1_IS3_EEED1B7v160006Ev, symObjAddr: 0x238, symBinAddr: 0x100003B08, symSize: 0x2C }
  - { offsetInCU: 0x20D48, offset: 0x20D48, size: 0x8, addend: 0x0, symName: __Z5inputv, symObjAddr: 0x264, symBinAddr: 0x100003B34, symSize: 0x2AC }
  - { offsetInCU: 0x20E3F, offset: 0x20E3F, size: 0x8, addend: 0x0, symName: __ZNSt3__16vectorIcNS_9allocatorIcEEEC1B7v160006Ev, symObjAddr: 0x6A0, symBinAddr: 0x100003F70, symSize: 0x2C }
  - { offsetInCU: 0x20E69, offset: 0x20E69, size: 0x8, addend: 0x0, symName: __ZNKSt3__19basic_iosIcNS_11char_traitsIcEEEcvbB7v160006Ev, symObjAddr: 0x6CC, symBinAddr: 0x100003F9C, symSize: 0x2C }
  - { offsetInCU: 0x20E8F, offset: 0x20E8F, size: 0x8, addend: 0x0, symName: __ZNSt3__16vectorIcNS_9allocatorIcEEE9push_backB7v160006ERKc, symObjAddr: 0x6F8, symBinAddr: 0x100003FC8, symSize: 0x6C }
  - { offsetInCU: 0x20EC6, offset: 0x20EC6, size: 0x8, addend: 0x0, symName: __ZNSt3__16vectorINS0_IcNS_9allocatorIcEEEENS1_IS3_EEE9push_backB7v160006ERKS3_, symObjAddr: 0x764, symBinAddr: 0x100004034, symSize: 0x6C }
  - { offsetInCU: 0x20EFD, offset: 0x20EFD, size: 0x8, addend: 0x0, symName: __ZNSt3__16vectorIcNS_9allocatorIcEEED1B7v160006Ev, symObjAddr: 0x7D0, symBinAddr: 0x1000040A0, symSize: 0x2C }
  - { offsetInCU: 0x20F27, offset: 0x20F27, size: 0x8, addend: 0x0, symName: __ZNSt3__16vectorINS0_IcNS_9allocatorIcEEEENS1_IS3_EEE5beginB7v160006Ev, symObjAddr: 0x7FC, symBinAddr: 0x1000040CC, symSize: 0x30 }
  - { offsetInCU: 0x20F4F, offset: 0x20F4F, size: 0x8, addend: 0x0, symName: __ZNSt3__16vectorINS0_IcNS_9allocatorIcEEEENS1_IS3_EEE3endB7v160006Ev, symObjAddr: 0x82C, symBinAddr: 0x1000040FC, symSize: 0x30 }
  - { offsetInCU: 0x20F77, offset: 0x20F77, size: 0x8, addend: 0x0, symName: __ZNKSt3__111__wrap_iterIPNS_6vectorIcNS_9allocatorIcEEEEEdeB7v160006Ev, symObjAddr: 0x890, symBinAddr: 0x100004160, symSize: 0x18 }
  - { offsetInCU: 0x20F9D, offset: 0x20F9D, size: 0x8, addend: 0x0, symName: __ZNSt3__16vectorIcNS_9allocatorIcEEEC1ERKS3_, symObjAddr: 0x8A8, symBinAddr: 0x100004178, symSize: 0x34 }
  - { offsetInCU: 0x20FD8, offset: 0x20FD8, size: 0x8, addend: 0x0, symName: __ZNSt3__16vectorIcNS_9allocatorIcEEE5beginB7v160006Ev, symObjAddr: 0x8DC, symBinAddr: 0x1000041AC, symSize: 0x30 }
  - { offsetInCU: 0x21000, offset: 0x21000, size: 0x8, addend: 0x0, symName: __ZNSt3__16vectorIcNS_9allocatorIcEEE3endB7v160006Ev, symObjAddr: 0x90C, symBinAddr: 0x1000041DC, symSize: 0x30 }
  - { offsetInCU: 0x21028, offset: 0x21028, size: 0x8, addend: 0x0, symName: __ZNKSt3__111__wrap_iterIPcEdeB7v160006Ev, symObjAddr: 0x970, symBinAddr: 0x100004240, symSize: 0x18 }
  - { offsetInCU: 0x2104E, offset: 0x2104E, size: 0x8, addend: 0x0, symName: __ZNSt3__111__wrap_iterIPcEppB7v160006Ev, symObjAddr: 0x988, symBinAddr: 0x100004258, symSize: 0x20 }
  - { offsetInCU: 0x21074, offset: 0x21074, size: 0x8, addend: 0x0, symName: __ZNSt3__111__wrap_iterIPNS_6vectorIcNS_9allocatorIcEEEEEppB7v160006Ev, symObjAddr: 0x9A8, symBinAddr: 0x100004278, symSize: 0x20 }
  - { offsetInCU: 0x21099, offset: 0x21099, size: 0x8, addend: 0x0, symName: __Z8makeEdgev, symObjAddr: 0x9C8, symBinAddr: 0x100004298, symSize: 0xFC }
  - { offsetInCU: 0x2113D, offset: 0x2113D, size: 0x8, addend: 0x0, symName: __ZNKSt3__16vectorIcNS_9allocatorIcEEE4sizeB7v160006Ev, symObjAddr: 0xAC4, symBinAddr: 0x100004394, symSize: 0x20 }
  - { offsetInCU: 0x21163, offset: 0x21163, size: 0x8, addend: 0x0, symName: __ZNSt3__16vectorIcNS_9allocatorIcEEEixB7v160006Em, symObjAddr: 0xAE4, symBinAddr: 0x1000043B4, symSize: 0x24 }
  - { offsetInCU: 0x2119A, offset: 0x2119A, size: 0x8, addend: 0x0, symName: __ZNSt3__14pairIccEC1B7v160006IRcS3_LPv0EEEOT_OT0_, symObjAddr: 0xB08, symBinAddr: 0x1000043D8, symSize: 0x3C }
  - { offsetInCU: 0x211F8, offset: 0x211F8, size: 0x8, addend: 0x0, symName: __ZNSt3__16vectorINS_4pairIccEENS_9allocatorIS2_EEE9push_backB7v160006ERKS2_, symObjAddr: 0xB44, symBinAddr: 0x100004414, symSize: 0x6C }
  - { offsetInCU: 0x2122E, offset: 0x2122E, size: 0x8, addend: 0x0, symName: __Z8dijkstraRK8DiaGraphc, symObjAddr: 0xBB0, symBinAddr: 0x100004480, symSize: 0x414 }
  - { offsetInCU: 0x213AC, offset: 0x213AC, size: 0x8, addend: 0x0, symName: __ZNSt3__13mapIciNS_4lessIcEENS_9allocatorINS_4pairIKciEEEEEC1B7v160006Ev, symObjAddr: 0xFC4, symBinAddr: 0x100004894, symSize: 0x2C }
  - { offsetInCU: 0x213D6, offset: 0x213D6, size: 0x8, addend: 0x0, symName: __ZNKSt3__13mapIcP7adjNodeNS_4lessIcEENS_9allocatorINS_4pairIKcS2_EEEEE5beginB7v160006Ev, symObjAddr: 0xFF0, symBinAddr: 0x1000048C0, symSize: 0x38 }
  - { offsetInCU: 0x213FC, offset: 0x213FC, size: 0x8, addend: 0x0, symName: __ZNKSt3__13mapIcP7adjNodeNS_4lessIcEENS_9allocatorINS_4pairIKcS2_EEEEE3endB7v160006Ev, symObjAddr: 0x1028, symBinAddr: 0x1000048F8, symSize: 0x38 }
  - { offsetInCU: 0x21422, offset: 0x21422, size: 0x8, addend: 0x0, symName: __ZNKSt3__120__map_const_iteratorINS_21__tree_const_iteratorINS_12__value_typeIcP7adjNodeEEPNS_11__tree_nodeIS5_PvEElEEEdeB7v160006Ev, symObjAddr: 0x1090, symBinAddr: 0x100004960, symSize: 0x28 }
  - { offsetInCU: 0x21448, offset: 0x21448, size: 0x8, addend: 0x0, symName: __ZNSt3__13mapIciNS_4lessIcEENS_9allocatorINS_4pairIKciEEEEEixERS5_, symObjAddr: 0x10B8, symBinAddr: 0x100004988, symSize: 0x80 }
  - { offsetInCU: 0x2147F, offset: 0x2147F, size: 0x8, addend: 0x0, symName: __ZNSt3__120__map_const_iteratorINS_21__tree_const_iteratorINS_12__value_typeIcP7adjNodeEEPNS_11__tree_nodeIS5_PvEElEEEppB7v160006Ev, symObjAddr: 0x1138, symBinAddr: 0x100004A08, symSize: 0x2C }
  - { offsetInCU: 0x214F5, offset: 0x214F5, size: 0x8, addend: 0x0, symName: __ZNSt3__114priority_queueINS_4pairIicEENS_6vectorIS2_NS_9allocatorIS2_EEEENS_7greaterIS2_EEEC1B7v160006Ev, symObjAddr: 0x1164, symBinAddr: 0x100004A34, symSize: 0x2C }
  - { offsetInCU: 0x2151F, offset: 0x2151F, size: 0x8, addend: 0x0, symName: __ZNSt3__114priority_queueINS_4pairIicEENS_6vectorIS2_NS_9allocatorIS2_EEEENS_7greaterIS2_EEE4pushEOS2_, symObjAddr: 0x1190, symBinAddr: 0x100004A60, symSize: 0x58 }
  - { offsetInCU: 0x2155B, offset: 0x2155B, size: 0x8, addend: 0x0, symName: __ZNSt3__14pairIicEC1B7v160006IiRcLPv0EEEOT_OT0_, symObjAddr: 0x11E8, symBinAddr: 0x100004AB8, symSize: 0x3C }
  - { offsetInCU: 0x215B9, offset: 0x215B9, size: 0x8, addend: 0x0, symName: __ZNKSt3__114priority_queueINS_4pairIicEENS_6vectorIS2_NS_9allocatorIS2_EEEENS_7greaterIS2_EEE5emptyB7v160006Ev, symObjAddr: 0x1224, symBinAddr: 0x100004AF4, symSize: 0x28 }
  - { offsetInCU: 0x215DF, offset: 0x215DF, size: 0x8, addend: 0x0, symName: __ZNKSt3__114priority_queueINS_4pairIicEENS_6vectorIS2_NS_9allocatorIS2_EEEENS_7greaterIS2_EEE3topB7v160006Ev, symObjAddr: 0x124C, symBinAddr: 0x100004B1C, symSize: 0x24 }
  - { offsetInCU: 0x21605, offset: 0x21605, size: 0x8, addend: 0x0, symName: __ZNSt3__114priority_queueINS_4pairIicEENS_6vectorIS2_NS_9allocatorIS2_EEEENS_7greaterIS2_EEE3popEv, symObjAddr: 0x1270, symBinAddr: 0x100004B40, symSize: 0x50 }
  - { offsetInCU: 0x2162D, offset: 0x2162D, size: 0x8, addend: 0x0, symName: __ZNKSt3__13mapIcP7adjNodeNS_4lessIcEENS_9allocatorINS_4pairIKcS2_EEEEE2atERS7_, symObjAddr: 0x12C0, symBinAddr: 0x100004B90, symSize: 0x68 }
  - { offsetInCU: 0x21682, offset: 0x21682, size: 0x8, addend: 0x0, symName: __ZNSt3__14pairIicEC1B7v160006IRiRcLPv0EEEOT_OT0_, symObjAddr: 0x1328, symBinAddr: 0x100004BF8, symSize: 0x3C }
  - { offsetInCU: 0x216E0, offset: 0x216E0, size: 0x8, addend: 0x0, symName: __ZNSt3__16vectorIiNS_9allocatorIiEEEC1B7v160006Ev, symObjAddr: 0x1364, symBinAddr: 0x100004C34, symSize: 0x2C }
  - { offsetInCU: 0x2170A, offset: 0x2170A, size: 0x8, addend: 0x0, symName: __ZNSt3__13mapIciNS_4lessIcEENS_9allocatorINS_4pairIKciEEEEE5beginB7v160006Ev, symObjAddr: 0x1390, symBinAddr: 0x100004C60, symSize: 0x38 }
  - { offsetInCU: 0x21730, offset: 0x21730, size: 0x8, addend: 0x0, symName: __ZNSt3__13mapIciNS_4lessIcEENS_9allocatorINS_4pairIKciEEEEE3endB7v160006Ev, symObjAddr: 0x13C8, symBinAddr: 0x100004C98, symSize: 0x38 }
  - { offsetInCU: 0x21756, offset: 0x21756, size: 0x8, addend: 0x0, symName: __ZNKSt3__114__map_iteratorINS_15__tree_iteratorINS_12__value_typeIciEEPNS_11__tree_nodeIS3_PvEElEEEdeB7v160006Ev, symObjAddr: 0x1430, symBinAddr: 0x100004D00, symSize: 0x28 }
  - { offsetInCU: 0x2177C, offset: 0x2177C, size: 0x8, addend: 0x0, symName: __ZNSt3__16vectorIiNS_9allocatorIiEEE9push_backB7v160006ERKi, symObjAddr: 0x1458, symBinAddr: 0x100004D28, symSize: 0x6C }
  - { offsetInCU: 0x217B3, offset: 0x217B3, size: 0x8, addend: 0x0, symName: __ZNSt3__114__map_iteratorINS_15__tree_iteratorINS_12__value_typeIciEEPNS_11__tree_nodeIS3_PvEElEEEppB7v160006Ev, symObjAddr: 0x14C4, symBinAddr: 0x100004D94, symSize: 0x2C }
  - { offsetInCU: 0x217D9, offset: 0x217D9, size: 0x8, addend: 0x0, symName: __ZNSt3__16vectorIiNS_9allocatorIiEEED1B7v160006Ev, symObjAddr: 0x14F0, symBinAddr: 0x100004DC0, symSize: 0x2C }
  - { offsetInCU: 0x21803, offset: 0x21803, size: 0x8, addend: 0x0, symName: __ZNSt3__114priority_queueINS_4pairIicEENS_6vectorIS2_NS_9allocatorIS2_EEEENS_7greaterIS2_EEED1Ev, symObjAddr: 0x151C, symBinAddr: 0x100004DEC, symSize: 0x2C }
  - { offsetInCU: 0x21830, offset: 0x21830, size: 0x8, addend: 0x0, symName: __ZNSt3__13mapIciNS_4lessIcEENS_9allocatorINS_4pairIKciEEEEED1B7v160006Ev, symObjAddr: 0x1548, symBinAddr: 0x100004E18, symSize: 0x2C }
  - { offsetInCU: 0x2185A, offset: 0x2185A, size: 0x8, addend: 0x0, symName: __ZNSt3__16vectorINS0_IiNS_9allocatorIiEEEENS1_IS3_EEEC1B7v160006Ev, symObjAddr: 0x1574, symBinAddr: 0x100004E44, symSize: 0x2C }
  - { offsetInCU: 0x21884, offset: 0x21884, size: 0x8, addend: 0x0, symName: __ZNSt3__16vectorINS0_IiNS_9allocatorIiEEEENS1_IS3_EEED1B7v160006Ev, symObjAddr: 0x15A0, symBinAddr: 0x100004E70, symSize: 0x2C }
  - { offsetInCU: 0x218AD, offset: 0x218AD, size: 0x8, addend: 0x0, symName: __Z18calculateDistancesRK8DiaGraph, symObjAddr: 0x15CC, symBinAddr: 0x100004E9C, symSize: 0x214 }
  - { offsetInCU: 0x219BA, offset: 0x219BA, size: 0x8, addend: 0x0, symName: __ZNSt3__16vectorINS0_IiNS_9allocatorIiEEEENS1_IS3_EEE9push_backB7v160006ERKS3_, symObjAddr: 0x17E0, symBinAddr: 0x1000050B0, symSize: 0x6C }
  - { offsetInCU: 0x219F1, offset: 0x219F1, size: 0x8, addend: 0x0, symName: __ZNKSt3__16vectorINS0_IiNS_9allocatorIiEEEENS1_IS3_EEE4sizeB7v160006Ev, symObjAddr: 0x184C, symBinAddr: 0x10000511C, symSize: 0x28 }
  - { offsetInCU: 0x21A17, offset: 0x21A17, size: 0x8, addend: 0x0, symName: __ZNSt3__16vectorINS0_IiNS_9allocatorIiEEEENS1_IS3_EEEixB7v160006Em, symObjAddr: 0x1874, symBinAddr: 0x100005144, symSize: 0x2C }
  - { offsetInCU: 0x21A4E, offset: 0x21A4E, size: 0x8, addend: 0x0, symName: __ZNKSt3__16vectorIiNS_9allocatorIiEEE4sizeB7v160006Ev, symObjAddr: 0x18A0, symBinAddr: 0x100005170, symSize: 0x28 }
  - { offsetInCU: 0x21A74, offset: 0x21A74, size: 0x8, addend: 0x0, symName: __ZNSt3__16vectorIiNS_9allocatorIiEEEixB7v160006Em, symObjAddr: 0x18C8, symBinAddr: 0x100005198, symSize: 0x24 }
  - { offsetInCU: 0x21AAB, offset: 0x21AAB, size: 0x8, addend: 0x0, symName: __ZNSt3__120__map_const_iteratorINS_21__tree_const_iteratorINS_12__value_typeIcP7adjNodeEEPNS_11__tree_nodeIS5_PvEElEEEppB7v160006Ei, symObjAddr: 0x18EC, symBinAddr: 0x1000051BC, symSize: 0x34 }
  - { offsetInCU: 0x21AEB, offset: 0x21AEB, size: 0x8, addend: 0x0, symName: __ZNSt3__13mapIcNS_6vectorIiNS_9allocatorIiEEEENS_4lessIcEENS2_INS_4pairIKcS4_EEEEEC1B7v160006Ev, symObjAddr: 0x1920, symBinAddr: 0x1000051F0, symSize: 0x2C }
  - { offsetInCU: 0x21B15, offset: 0x21B15, size: 0x8, addend: 0x0, symName: __ZNSt3__13mapIcNS_6vectorIiNS_9allocatorIiEEEENS_4lessIcEENS2_INS_4pairIKcS4_EEEEED1B7v160006Ev, symObjAddr: 0x194C, symBinAddr: 0x10000521C, symSize: 0x2C }
  - { offsetInCU: 0x21B3E, offset: 0x21B3E, size: 0x8, addend: 0x0, symName: __Z10getFriendsRK8DiaGraph, symObjAddr: 0x1978, symBinAddr: 0x100005248, symSize: 0x120 }
  - { offsetInCU: 0x21B91, offset: 0x21B91, size: 0x8, addend: 0x0, symName: __ZNSt3__13mapIcNS_6vectorIiNS_9allocatorIiEEEENS_4lessIcEENS2_INS_4pairIKcS4_EEEEEixERS8_, symObjAddr: 0x1A98, symBinAddr: 0x100005368, symSize: 0x80 }
  - { offsetInCU: 0x21BC8, offset: 0x21BC8, size: 0x8, addend: 0x0, symName: __ZNSt3__16vectorIiNS_9allocatorIiEEEaSB7v160006ERKS3_, symObjAddr: 0x1B18, symBinAddr: 0x1000053E8, symSize: 0x68 }
  - { offsetInCU: 0x21BFE, offset: 0x21BFE, size: 0x8, addend: 0x0, symName: __Z6mycompRKNSt3__14pairIciEES3_, symObjAddr: 0x1B80, symBinAddr: 0x100005450, symSize: 0x30 }
  - { offsetInCU: 0x21C38, offset: 0x21C38, size: 0x8, addend: 0x0, symName: __Z11findMinNode8DiaGraph, symObjAddr: 0x1BB0, symBinAddr: 0x100005480, symSize: 0x370 }
  - { offsetInCU: 0x21D0B, offset: 0x21D0B, size: 0x8, addend: 0x0, symName: __ZNSt3__13mapIcNS_6vectorIiNS_9allocatorIiEEEENS_4lessIcEENS2_INS_4pairIKcS4_EEEEE5beginB7v160006Ev, symObjAddr: 0x1F20, symBinAddr: 0x1000057F0, symSize: 0x38 }
  - { offsetInCU: 0x21D31, offset: 0x21D31, size: 0x8, addend: 0x0, symName: __ZNSt3__13mapIcNS_6vectorIiNS_9allocatorIiEEEENS_4lessIcEENS2_INS_4pairIKcS4_EEEEE3endB7v160006Ev, symObjAddr: 0x1F58, symBinAddr: 0x100005828, symSize: 0x38 }
  - { offsetInCU: 0x21D57, offset: 0x21D57, size: 0x8, addend: 0x0, symName: __ZNKSt3__114__map_iteratorINS_15__tree_iteratorINS_12__value_typeIcNS_6vectorIiNS_9allocatorIiEEEEEEPNS_11__tree_nodeIS7_PvEElEEEdeB7v160006Ev, symObjAddr: 0x1FC0, symBinAddr: 0x100005890, symSize: 0x28 }
  - { offsetInCU: 0x21D7D, offset: 0x21D7D, size: 0x8, addend: 0x0, symName: __ZNKSt3__16vectorIiNS_9allocatorIiEEEixB7v160006Em, symObjAddr: 0x1FE8, symBinAddr: 0x1000058B8, symSize: 0x24 }
  - { offsetInCU: 0x21DB4, offset: 0x21DB4, size: 0x8, addend: 0x0, symName: __ZNSt3__114__map_iteratorINS_15__tree_iteratorINS_12__value_typeIcNS_6vectorIiNS_9allocatorIiEEEEEEPNS_11__tree_nodeIS7_PvEElEEEppB7v160006Ev, symObjAddr: 0x200C, symBinAddr: 0x1000058DC, symSize: 0x2C }
  - { offsetInCU: 0x21DDA, offset: 0x21DDA, size: 0x8, addend: 0x0, symName: __ZNSt3__16vectorIiNS_9allocatorIiEEE5beginB7v160006Ev, symObjAddr: 0x207C, symBinAddr: 0x10000594C, symSize: 0x30 }
  - { offsetInCU: 0x21E02, offset: 0x21E02, size: 0x8, addend: 0x0, symName: __ZNSt3__16vectorIiNS_9allocatorIiEEE3endB7v160006Ev, symObjAddr: 0x20AC, symBinAddr: 0x10000597C, symSize: 0x30 }
  - { offsetInCU: 0x21E2A, offset: 0x21E2A, size: 0x8, addend: 0x0, symName: __ZNKSt3__111__wrap_iterIPiEdeB7v160006Ev, symObjAddr: 0x20DC, symBinAddr: 0x1000059AC, symSize: 0x18 }
  - { offsetInCU: 0x21E69, offset: 0x21E69, size: 0x8, addend: 0x0, symName: __ZNSt3__14pairIciEC1B7v160006IRNS0_IKciEELPv0EEEOT_, symObjAddr: 0x2144, symBinAddr: 0x100005A14, symSize: 0x34 }
  - { offsetInCU: 0x21EB1, offset: 0x21EB1, size: 0x8, addend: 0x0, symName: _main, symObjAddr: 0x2178, symBinAddr: 0x100005A48, symSize: 0x178 }
  - { offsetInCU: 0x21F26, offset: 0x21F26, size: 0x8, addend: 0x0, symName: __ZNSt3__16vectorINS_4pairIccEENS_9allocatorIS2_EEEC1ERKS5_, symObjAddr: 0x22F0, symBinAddr: 0x100005BC0, symSize: 0x34 }
  - { offsetInCU: 0x21FDF, offset: 0x21FDF, size: 0x8, addend: 0x0, symName: __ZN8DiaGraphC1ENSt3__16vectorINS0_4pairIccEENS0_9allocatorIS3_EEEE, symObjAddr: 0x2324, symBinAddr: 0x100005BF4, symSize: 0x34 }
  - { offsetInCU: 0x22018, offset: 0x22018, size: 0x8, addend: 0x0, symName: __ZNSt3__13mapIcP7adjNodeNS_4lessIcEENS_9allocatorINS_4pairIKcS2_EEEEE5beginB7v160006Ev, symObjAddr: 0x2358, symBinAddr: 0x100005C28, symSize: 0x38 }
  - { offsetInCU: 0x2203E, offset: 0x2203E, size: 0x8, addend: 0x0, symName: __ZNSt3__13mapIcP7adjNodeNS_4lessIcEENS_9allocatorINS_4pairIKcS2_EEEEE3endB7v160006Ev, symObjAddr: 0x2390, symBinAddr: 0x100005C60, symSize: 0x38 }
  - { offsetInCU: 0x22064, offset: 0x22064, size: 0x8, addend: 0x0, symName: __ZNKSt3__114__map_iteratorINS_15__tree_iteratorINS_12__value_typeIcP7adjNodeEEPNS_11__tree_nodeIS5_PvEElEEEdeB7v160006Ev, symObjAddr: 0x23F8, symBinAddr: 0x100005CC8, symSize: 0x28 }
  - { offsetInCU: 0x2208A, offset: 0x2208A, size: 0x8, addend: 0x0, symName: __ZNSt3__114__map_iteratorINS_15__tree_iteratorINS_12__value_typeIcP7adjNodeEEPNS_11__tree_nodeIS5_PvEElEEEppB7v160006Ev, symObjAddr: 0x2420, symBinAddr: 0x100005CF0, symSize: 0x2C }
  - { offsetInCU: 0x220BA, offset: 0x220BA, size: 0x8, addend: 0x0, symName: __ZN8DiaGraphC1ERKS_, symObjAddr: 0x244C, symBinAddr: 0x100005D1C, symSize: 0x34 }
  - { offsetInCU: 0x220EF, offset: 0x220EF, size: 0x8, addend: 0x0, symName: __ZN8DiaGraphD1Ev, symObjAddr: 0x2480, symBinAddr: 0x100005D50, symSize: 0x2C }
  - { offsetInCU: 0x2211B, offset: 0x2211B, size: 0x8, addend: 0x0, symName: __ZNKSt3__111__wrap_iterIPNS_6vectorIcNS_9allocatorIcEEEEE4baseB7v160006Ev, symObjAddr: 0x24F4, symBinAddr: 0x100005DC4, symSize: 0x18 }
  - { offsetInCU: 0x22141, offset: 0x22141, size: 0x8, addend: 0x0, symName: __ZNKSt3__111__wrap_iterIPcE4baseB7v160006Ev, symObjAddr: 0x2554, symBinAddr: 0x100005E24, symSize: 0x18 }
  - { offsetInCU: 0x22167, offset: 0x22167, size: 0x8, addend: 0x0, symName: __ZNSt3__14pairIccEC2B7v160006IRcS3_LPv0EEEOT_OT0_, symObjAddr: 0x256C, symBinAddr: 0x100005E3C, symSize: 0x34 }
  - { offsetInCU: 0x221C5, offset: 0x221C5, size: 0x8, addend: 0x0, symName: __ZNSt3__14pairIicEC2B7v160006IiRcLPv0EEEOT_OT0_, symObjAddr: 0x25A0, symBinAddr: 0x100005E70, symSize: 0x34 }
  - { offsetInCU: 0x22223, offset: 0x22223, size: 0x8, addend: 0x0, symName: __ZNSt3__14pairIicEC2B7v160006IRiRcLPv0EEEOT_OT0_, symObjAddr: 0x25D4, symBinAddr: 0x100005EA4, symSize: 0x34 }
  - { offsetInCU: 0x22281, offset: 0x22281, size: 0x8, addend: 0x0, symName: __ZNSt3__114priority_queueINS_4pairIicEENS_6vectorIS2_NS_9allocatorIS2_EEEENS_7greaterIS2_EEED2Ev, symObjAddr: 0x2608, symBinAddr: 0x100005ED8, symSize: 0x2C }
  - { offsetInCU: 0x222AE, offset: 0x222AE, size: 0x8, addend: 0x0, symName: __ZNSt3__16vectorINS_4pairIicEENS_9allocatorIS2_EEED1B7v160006Ev, symObjAddr: 0x2634, symBinAddr: 0x100005F04, symSize: 0x2C }
  - { offsetInCU: 0x222D8, offset: 0x222D8, size: 0x8, addend: 0x0, symName: __ZNSt3__16vectorINS_4pairIicEENS_9allocatorIS2_EEED2B7v160006Ev, symObjAddr: 0x2660, symBinAddr: 0x100005F30, symSize: 0x44 }
  - { offsetInCU: 0x22302, offset: 0x22302, size: 0x8, addend: 0x0, symName: __ZNSt3__16vectorINS_4pairIicEENS_9allocatorIS2_EEE16__destroy_vectorC1ERS5_, symObjAddr: 0x26A4, symBinAddr: 0x100005F74, symSize: 0x34 }
  - { offsetInCU: 0x2233B, offset: 0x2233B, size: 0x8, addend: 0x0, symName: __ZNSt3__16vectorINS_4pairIicEENS_9allocatorIS2_EEE16__destroy_vectorclB7v160006Ev, symObjAddr: 0x26E4, symBinAddr: 0x100005FB4, symSize: 0x9C }
  - { offsetInCU: 0x22361, offset: 0x22361, size: 0x8, addend: 0x0, symName: __ZNSt3__16vectorINS_4pairIicEENS_9allocatorIS2_EEE16__destroy_vectorC2ERS5_, symObjAddr: 0x2780, symBinAddr: 0x100006050, symSize: 0x20 }
  - { offsetInCU: 0x2239A, offset: 0x2239A, size: 0x8, addend: 0x0, symName: __ZNKSt3__16vectorINS_4pairIicEENS_9allocatorIS2_EEE17__annotate_deleteB7v160006Ev, symObjAddr: 0x27A0, symBinAddr: 0x100006070, symSize: 0xB8 }
  - { offsetInCU: 0x223C0, offset: 0x223C0, size: 0x8, addend: 0x0, symName: __ZNSt3__16vectorINS_4pairIicEENS_9allocatorIS2_EEE7__clearB7v160006Ev, symObjAddr: 0x2868, symBinAddr: 0x100006138, symSize: 0x28 }
  - { offsetInCU: 0x223E6, offset: 0x223E6, size: 0x8, addend: 0x0, symName: __ZNSt3__116allocator_traitsINS_9allocatorINS_4pairIicEEEEE10deallocateB7v160006ERS4_PS3_m, symObjAddr: 0x2890, symBinAddr: 0x100006160, symSize: 0x34 }
  - { offsetInCU: 0x22428, offset: 0x22428, size: 0x8, addend: 0x0, symName: __ZNSt3__16vectorINS_4pairIicEENS_9allocatorIS2_EEE7__allocB7v160006Ev, symObjAddr: 0x28C4, symBinAddr: 0x100006194, symSize: 0x28 }
  - { offsetInCU: 0x2244E, offset: 0x2244E, size: 0x8, addend: 0x0, symName: __ZNKSt3__16vectorINS_4pairIicEENS_9allocatorIS2_EEE8capacityB7v160006Ev, symObjAddr: 0x28EC, symBinAddr: 0x1000061BC, symSize: 0x40 }
  - { offsetInCU: 0x22474, offset: 0x22474, size: 0x8, addend: 0x0, symName: __ZNKSt3__16vectorINS_4pairIicEENS_9allocatorIS2_EEE31__annotate_contiguous_containerB7v160006EPKvS7_S7_S7_, symObjAddr: 0x292C, symBinAddr: 0x1000061FC, symSize: 0x20 }
  - { offsetInCU: 0x224C6, offset: 0x224C6, size: 0x8, addend: 0x0, symName: __ZNKSt3__16vectorINS_4pairIicEENS_9allocatorIS2_EEE4dataB7v160006Ev, symObjAddr: 0x294C, symBinAddr: 0x10000621C, symSize: 0x28 }
  - { offsetInCU: 0x224EC, offset: 0x224EC, size: 0x8, addend: 0x0, symName: __ZNKSt3__16vectorINS_4pairIicEENS_9allocatorIS2_EEE4sizeB7v160006Ev, symObjAddr: 0x2974, symBinAddr: 0x100006244, symSize: 0x28 }
  - { offsetInCU: 0x22512, offset: 0x22512, size: 0x8, addend: 0x0, symName: __ZNSt3__16vectorINS_4pairIicEENS_9allocatorIS2_EEE22__base_destruct_at_endB7v160006EPS2_, symObjAddr: 0x29B0, symBinAddr: 0x100006280, symSize: 0x8C }
  - { offsetInCU: 0x22556, offset: 0x22556, size: 0x8, addend: 0x0, symName: __ZNSt3__116allocator_traitsINS_9allocatorINS_4pairIicEEEEE7destroyB7v160006IS3_vEEvRS4_PT_, symObjAddr: 0x2A3C, symBinAddr: 0x10000630C, symSize: 0x2C }
  - { offsetInCU: 0x22593, offset: 0x22593, size: 0x8, addend: 0x0, symName: __ZNSt3__19allocatorINS_4pairIicEEE7destroyB7v160006EPS2_, symObjAddr: 0x2A68, symBinAddr: 0x100006338, symSize: 0x14 }
  - { offsetInCU: 0x225C7, offset: 0x225C7, size: 0x8, addend: 0x0, symName: __ZNSt3__19allocatorINS_4pairIicEEE10deallocateB7v160006EPS2_m, symObjAddr: 0x2A7C, symBinAddr: 0x10000634C, symSize: 0x40 }
  - { offsetInCU: 0x22609, offset: 0x22609, size: 0x8, addend: 0x0, symName: __ZNSt3__117__compressed_pairIPNS_4pairIicEENS_9allocatorIS2_EEE6secondB7v160006Ev, symObjAddr: 0x2B38, symBinAddr: 0x100006408, symSize: 0x24 }
  - { offsetInCU: 0x2262F, offset: 0x2262F, size: 0x8, addend: 0x0, symName: __ZNSt3__122__compressed_pair_elemINS_9allocatorINS_4pairIicEEEELi1ELb1EE5__getB7v160006Ev, symObjAddr: 0x2B5C, symBinAddr: 0x10000642C, symSize: 0x14 }
  - { offsetInCU: 0x22655, offset: 0x22655, size: 0x8, addend: 0x0, symName: __ZNKSt3__16vectorINS_4pairIicEENS_9allocatorIS2_EEE9__end_capB7v160006Ev, symObjAddr: 0x2B70, symBinAddr: 0x100006440, symSize: 0x28 }
  - { offsetInCU: 0x2267B, offset: 0x2267B, size: 0x8, addend: 0x0, symName: __ZNKSt3__117__compressed_pairIPNS_4pairIicEENS_9allocatorIS2_EEE5firstB7v160006Ev, symObjAddr: 0x2B98, symBinAddr: 0x100006468, symSize: 0x24 }
  - { offsetInCU: 0x226A1, offset: 0x226A1, size: 0x8, addend: 0x0, symName: __ZNKSt3__122__compressed_pair_elemIPNS_4pairIicEELi0ELb0EE5__getB7v160006Ev, symObjAddr: 0x2BBC, symBinAddr: 0x10000648C, symSize: 0x14 }
  - { offsetInCU: 0x226C7, offset: 0x226C7, size: 0x8, addend: 0x0, symName: __ZNSt3__111__wrap_iterIPiEppB7v160006Ev, symObjAddr: 0x2D04, symBinAddr: 0x1000065D4, symSize: 0x20 }
  - { offsetInCU: 0x226F7, offset: 0x226F7, size: 0x8, addend: 0x0, symName: __ZNKSt3__16__lessIiiEclB7v160006ERKiS3_, symObjAddr: 0x2D24, symBinAddr: 0x1000065F4, symSize: 0x34 }
  - { offsetInCU: 0x22739, offset: 0x22739, size: 0x8, addend: 0x0, symName: __ZNKSt3__111__wrap_iterIPiE4baseB7v160006Ev, symObjAddr: 0x2DA0, symBinAddr: 0x100006670, symSize: 0x18 }
  - { offsetInCU: 0x22769, offset: 0x22769, size: 0x8, addend: 0x0, symName: __ZNKSt3__110__identityclIRNS_4pairIKciEEEEOT_S7_, symObjAddr: 0x2FF4, symBinAddr: 0x1000068C4, symSize: 0x18 }
  - { offsetInCU: 0x227A6, offset: 0x227A6, size: 0x8, addend: 0x0, symName: __ZNSt3__14pairIciEC2B7v160006IRNS0_IKciEELPv0EEEOT_, symObjAddr: 0x300C, symBinAddr: 0x1000068DC, symSize: 0x54 }
  - { offsetInCU: 0x227EE, offset: 0x227EE, size: 0x8, addend: 0x0, symName: __ZNSt3__110__get_pairILm0EE3getB7v160006IKciEERT_RNS_4pairIS4_T0_EE, symObjAddr: 0x30A8, symBinAddr: 0x100006978, symSize: 0x14 }
  - { offsetInCU: 0x22824, offset: 0x22824, size: 0x8, addend: 0x0, symName: __ZNSt3__110__get_pairILm1EE3getB7v160006IKciEERT0_RNS_4pairIT_S4_EE, symObjAddr: 0x30BC, symBinAddr: 0x10000698C, symSize: 0x18 }
  - { offsetInCU: 0x2285A, offset: 0x2285A, size: 0x8, addend: 0x0, symName: __ZN8DiaGraphC2ENSt3__16vectorINS0_4pairIccEENS0_9allocatorIS3_EEEE, symObjAddr: 0x30D4, symBinAddr: 0x1000069A4, symSize: 0x148 }
  - { offsetInCU: 0x2291B, offset: 0x2291B, size: 0x8, addend: 0x0, symName: __ZNSt3__13mapIcP7adjNodeNS_4lessIcEENS_9allocatorINS_4pairIKcS2_EEEEEC1B7v160006Ev, symObjAddr: 0x321C, symBinAddr: 0x100006AEC, symSize: 0x2C }
  - { offsetInCU: 0x22945, offset: 0x22945, size: 0x8, addend: 0x0, symName: __ZNSt3__16vectorINS_4pairIccEENS_9allocatorIS2_EEE5beginB7v160006Ev, symObjAddr: 0x3248, symBinAddr: 0x100006B18, symSize: 0x30 }
  - { offsetInCU: 0x2296D, offset: 0x2296D, size: 0x8, addend: 0x0, symName: __ZNSt3__16vectorINS_4pairIccEENS_9allocatorIS2_EEE3endB7v160006Ev, symObjAddr: 0x3278, symBinAddr: 0x100006B48, symSize: 0x30 }
  - { offsetInCU: 0x22995, offset: 0x22995, size: 0x8, addend: 0x0, symName: __ZNKSt3__111__wrap_iterIPNS_4pairIccEEEdeB7v160006Ev, symObjAddr: 0x32DC, symBinAddr: 0x100006BAC, symSize: 0x18 }
  - { offsetInCU: 0x229BB, offset: 0x229BB, size: 0x8, addend: 0x0, symName: __ZN8DiaGraph14getAdjListNodeEciP7adjNode, symObjAddr: 0x32F4, symBinAddr: 0x100006BC4, symSize: 0x5C }
  - { offsetInCU: 0x22A19, offset: 0x22A19, size: 0x8, addend: 0x0, symName: __ZNSt3__13mapIcP7adjNodeNS_4lessIcEENS_9allocatorINS_4pairIKcS2_EEEEEixERS7_, symObjAddr: 0x3350, symBinAddr: 0x100006C20, symSize: 0x80 }
  - { offsetInCU: 0x22A50, offset: 0x22A50, size: 0x8, addend: 0x0, symName: __ZNSt3__111__wrap_iterIPNS_4pairIccEEEppB7v160006Ev, symObjAddr: 0x33D0, symBinAddr: 0x100006CA0, symSize: 0x20 }
  - { offsetInCU: 0x22A76, offset: 0x22A76, size: 0x8, addend: 0x0, symName: __ZNSt3__13mapIcP7adjNodeNS_4lessIcEENS_9allocatorINS_4pairIKcS2_EEEEED1B7v160006Ev, symObjAddr: 0x33F0, symBinAddr: 0x100006CC0, symSize: 0x2C }
  - { offsetInCU: 0x22AA0, offset: 0x22AA0, size: 0x8, addend: 0x0, symName: __ZNSt3__13mapIcP7adjNodeNS_4lessIcEENS_9allocatorINS_4pairIKcS2_EEEEEC2B7v160006Ev, symObjAddr: 0x341C, symBinAddr: 0x100006CEC, symSize: 0x40 }
  - { offsetInCU: 0x22ACA, offset: 0x22ACA, size: 0x8, addend: 0x0, symName: __ZNSt3__119__map_value_compareIcNS_12__value_typeIcP7adjNodeEENS_4lessIcEELb1EEC1B7v160006ES6_, symObjAddr: 0x345C, symBinAddr: 0x100006D2C, symSize: 0x2C }
  - { offsetInCU: 0x22B03, offset: 0x22B03, size: 0x8, addend: 0x0, symName: __ZNSt3__16__treeINS_12__value_typeIcP7adjNodeEENS_19__map_value_compareIcS4_NS_4lessIcEELb1EEENS_9allocatorIS4_EEEC1ERKS8_, symObjAddr: 0x3488, symBinAddr: 0x100006D58, symSize: 0x34 }
  - { offsetInCU: 0x22B3E, offset: 0x22B3E, size: 0x8, addend: 0x0, symName: __ZNSt3__119__map_value_compareIcNS_12__value_typeIcP7adjNodeEENS_4lessIcEELb1EEC2B7v160006ES6_, symObjAddr: 0x34BC, symBinAddr: 0x100006D8C, symSize: 0x14 }
  - { offsetInCU: 0x22B77, offset: 0x22B77, size: 0x8, addend: 0x0, symName: __ZNSt3__16__treeINS_12__value_typeIcP7adjNodeEENS_19__map_value_compareIcS4_NS_4lessIcEELb1EEENS_9allocatorIS4_EEEC2ERKS8_, symObjAddr: 0x34D0, symBinAddr: 0x100006DA0, symSize: 0x7C }
  - { offsetInCU: 0x22BB2, offset: 0x22BB2, size: 0x8, addend: 0x0, symName: __ZNSt3__117__compressed_pairINS_15__tree_end_nodeIPNS_16__tree_node_baseIPvEEEENS_9allocatorINS_11__tree_nodeINS_12__value_typeIcP7adjNodeEES3_EEEEEC1B7v160006ILb1EvEEv, symObjAddr: 0x354C, symBinAddr: 0x100006E1C, symSize: 0x2C }
  - { offsetInCU: 0x22BE7, offset: 0x22BE7, size: 0x8, addend: 0x0, symName: __ZNSt3__117__compressed_pairImNS_19__map_value_compareIcNS_12__value_typeIcP7adjNodeEENS_4lessIcEELb1EEEEC1B7v160006IiRKS8_EEOT_OT0_, symObjAddr: 0x3578, symBinAddr: 0x100006E48, symSize: 0x3C }
  - { offsetInCU: 0x22C3F, offset: 0x22C3F, size: 0x8, addend: 0x0, symName: __ZNSt3__16__treeINS_12__value_typeIcP7adjNodeEENS_19__map_value_compareIcS4_NS_4lessIcEELb1EEENS_9allocatorIS4_EEE10__end_nodeB7v160006Ev, symObjAddr: 0x35B4, symBinAddr: 0x100006E84, symSize: 0x2C }
  - { offsetInCU: 0x22C65, offset: 0x22C65, size: 0x8, addend: 0x0, symName: __ZNSt3__16__treeINS_12__value_typeIcP7adjNodeEENS_19__map_value_compareIcS4_NS_4lessIcEELb1EEENS_9allocatorIS4_EEE12__begin_nodeB7v160006Ev, symObjAddr: 0x35E0, symBinAddr: 0x100006EB0, symSize: 0x14 }
  - { offsetInCU: 0x22C8B, offset: 0x22C8B, size: 0x8, addend: 0x0, symName: __ZNSt3__117__compressed_pairINS_15__tree_end_nodeIPNS_16__tree_node_baseIPvEEEENS_9allocatorINS_11__tree_nodeINS_12__value_typeIcP7adjNodeEES3_EEEEEC2B7v160006ILb1EvEEv, symObjAddr: 0x35F4, symBinAddr: 0x100006EC4, symSize: 0x34 }
  - { offsetInCU: 0x22CC0, offset: 0x22CC0, size: 0x8, addend: 0x0, symName: __ZNSt3__122__compressed_pair_elemINS_15__tree_end_nodeIPNS_16__tree_node_baseIPvEEEELi0ELb0EEC2B7v160006ENS_16__value_init_tagE, symObjAddr: 0x3628, symBinAddr: 0x100006EF8, symSize: 0x2C }
  - { offsetInCU: 0x22CF4, offset: 0x22CF4, size: 0x8, addend: 0x0, symName: __ZNSt3__122__compressed_pair_elemINS_9allocatorINS_11__tree_nodeINS_12__value_typeIcP7adjNodeEEPvEEEELi1ELb1EEC2B7v160006ENS_16__value_init_tagE, symObjAddr: 0x3654, symBinAddr: 0x100006F24, symSize: 0x2C }
  - { offsetInCU: 0x22D28, offset: 0x22D28, size: 0x8, addend: 0x0, symName: __ZNSt3__115__tree_end_nodeIPNS_16__tree_node_baseIPvEEEC1B7v160006Ev, symObjAddr: 0x3680, symBinAddr: 0x100006F50, symSize: 0x2C }
  - { offsetInCU: 0x22D52, offset: 0x22D52, size: 0x8, addend: 0x0, symName: __ZNSt3__115__tree_end_nodeIPNS_16__tree_node_baseIPvEEEC2B7v160006Ev, symObjAddr: 0x36AC, symBinAddr: 0x100006F7C, symSize: 0x18 }
  - { offsetInCU: 0x22D7C, offset: 0x22D7C, size: 0x8, addend: 0x0, symName: __ZNSt3__19allocatorINS_11__tree_nodeINS_12__value_typeIcP7adjNodeEEPvEEEC2B7v160006Ev, symObjAddr: 0x36C4, symBinAddr: 0x100006F94, symSize: 0x2C }
  - { offsetInCU: 0x22DA6, offset: 0x22DA6, size: 0x8, addend: 0x0, symName: __ZNSt3__116__non_trivial_ifILb1ENS_9allocatorINS_11__tree_nodeINS_12__value_typeIcP7adjNodeEEPvEEEEEC2B7v160006Ev, symObjAddr: 0x36F0, symBinAddr: 0x100006FC0, symSize: 0x14 }
  - { offsetInCU: 0x22DD0, offset: 0x22DD0, size: 0x8, addend: 0x0, symName: __ZNSt3__117__compressed_pairImNS_19__map_value_compareIcNS_12__value_typeIcP7adjNodeEENS_4lessIcEELb1EEEEC2B7v160006IiRKS8_EEOT_OT0_, symObjAddr: 0x3704, symBinAddr: 0x100006FD4, symSize: 0x44 }
  - { offsetInCU: 0x22E28, offset: 0x22E28, size: 0x8, addend: 0x0, symName: __ZNSt3__122__compressed_pair_elemImLi0ELb0EEC2B7v160006IivEEOT_, symObjAddr: 0x3748, symBinAddr: 0x100007018, symSize: 0x24 }
  - { offsetInCU: 0x22E6A, offset: 0x22E6A, size: 0x8, addend: 0x0, symName: __ZNSt3__122__compressed_pair_elemINS_19__map_value_compareIcNS_12__value_typeIcP7adjNodeEENS_4lessIcEELb1EEELi1ELb1EEC2B7v160006IRKS8_vEEOT_, symObjAddr: 0x376C, symBinAddr: 0x10000703C, symSize: 0x18 }
  - { offsetInCU: 0x22EAC, offset: 0x22EAC, size: 0x8, addend: 0x0, symName: __ZNSt3__114pointer_traitsIPNS_15__tree_end_nodeIPNS_16__tree_node_baseIPvEEEEE10pointer_toB7v160006ERS6_, symObjAddr: 0x3784, symBinAddr: 0x100007054, symSize: 0x14 }
  - { offsetInCU: 0x22ECF, offset: 0x22ECF, size: 0x8, addend: 0x0, symName: __ZNSt3__117__compressed_pairINS_15__tree_end_nodeIPNS_16__tree_node_baseIPvEEEENS_9allocatorINS_11__tree_nodeINS_12__value_typeIcP7adjNodeEES3_EEEEE5firstB7v160006Ev, symObjAddr: 0x3798, symBinAddr: 0x100007068, symSize: 0x24 }
  - { offsetInCU: 0x22EF5, offset: 0x22EF5, size: 0x8, addend: 0x0, symName: __ZNSt3__122__compressed_pair_elemINS_15__tree_end_nodeIPNS_16__tree_node_baseIPvEEEELi0ELb0EE5__getB7v160006Ev, symObjAddr: 0x37BC, symBinAddr: 0x10000708C, symSize: 0x14 }
  - { offsetInCU: 0x22F1B, offset: 0x22F1B, size: 0x8, addend: 0x0, symName: __ZNSt3__16vectorINS_4pairIccEENS_9allocatorIS2_EEE11__make_iterB7v160006EPS2_, symObjAddr: 0x37D0, symBinAddr: 0x1000070A0, symSize: 0x34 }
  - { offsetInCU: 0x22F50, offset: 0x22F50, size: 0x8, addend: 0x0, symName: __ZNSt3__111__wrap_iterIPNS_4pairIccEEEC1B7v160006EPKvS3_, symObjAddr: 0x3804, symBinAddr: 0x1000070D4, symSize: 0x3C }
  - { offsetInCU: 0x22F96, offset: 0x22F96, size: 0x8, addend: 0x0, symName: __ZNSt3__111__wrap_iterIPNS_4pairIccEEEC2B7v160006EPKvS3_, symObjAddr: 0x3840, symBinAddr: 0x100007110, symSize: 0x24 }
  - { offsetInCU: 0x22FDC, offset: 0x22FDC, size: 0x8, addend: 0x0, symName: __ZNKSt3__111__wrap_iterIPNS_4pairIccEEE4baseB7v160006Ev, symObjAddr: 0x38AC, symBinAddr: 0x10000717C, symSize: 0x18 }
  - { offsetInCU: 0x23016, offset: 0x23016, size: 0x8, addend: 0x0, symName: __ZNSt3__16__treeINS_12__value_typeIcP7adjNodeEENS_19__map_value_compareIcS4_NS_4lessIcEELb1EEENS_9allocatorIS4_EEE25__emplace_unique_key_argsIcJRKNS_21piecewise_construct_tENS_5tupleIJRKcEEENSG_IJEEEEEENS_4pairINS_15__tree_iteratorIS4_PNS_11__tree_nodeIS4_PvEElEEbEERKT_DpOT0_, symObjAddr: 0x38C4, symBinAddr: 0x100007194, symSize: 0x100 }
  - { offsetInCU: 0x230EC, offset: 0x230EC, size: 0x8, addend: 0x0, symName: __ZNKSt3__115__tree_iteratorINS_12__value_typeIcP7adjNodeEEPNS_11__tree_nodeIS4_PvEElEptB7v160006Ev, symObjAddr: 0x39F4, symBinAddr: 0x1000072C4, symSize: 0x2C }
  - { offsetInCU: 0x23112, offset: 0x23112, size: 0x8, addend: 0x0, symName: __ZNSt3__112__value_typeIcP7adjNodeE11__get_valueB7v160006Ev, symObjAddr: 0x3A20, symBinAddr: 0x1000072F0, symSize: 0x14 }
  - { offsetInCU: 0x23138, offset: 0x23138, size: 0x8, addend: 0x0, symName: __ZNSt3__16__treeINS_12__value_typeIcP7adjNodeEENS_19__map_value_compareIcS4_NS_4lessIcEELb1EEENS_9allocatorIS4_EEE12__find_equalIcEERPNS_16__tree_node_baseIPvEERPNS_15__tree_end_nodeISG_EERKT_, symObjAddr: 0x3A34, symBinAddr: 0x100007304, symSize: 0x184 }
  - { offsetInCU: 0x231A5, offset: 0x231A5, size: 0x8, addend: 0x0, symName: __ZNSt3__16__treeINS_12__value_typeIcP7adjNodeEENS_19__map_value_compareIcS4_NS_4lessIcEELb1EEENS_9allocatorIS4_EEE16__construct_nodeIJRKNS_21piecewise_construct_tENS_5tupleIJRKcEEENSG_IJEEEEEENS_10unique_ptrINS_11__tree_nodeIS4_PvEENS_22__tree_node_destructorINS9_ISO_EEEEEEDpOT_, symObjAddr: 0x3BB8, symBinAddr: 0x100007488, symSize: 0x120 }
  - { offsetInCU: 0x2322E, offset: 0x2322E, size: 0x8, addend: 0x0, symName: __ZNSt3__16__treeINS_12__value_typeIcP7adjNodeEENS_19__map_value_compareIcS4_NS_4lessIcEELb1EEENS_9allocatorIS4_EEE16__insert_node_atEPNS_15__tree_end_nodeIPNS_16__tree_node_baseIPvEEEERSG_SG_, symObjAddr: 0x3CD8, symBinAddr: 0x1000075A8, symSize: 0xCC }
  - { offsetInCU: 0x23283, offset: 0x23283, size: 0x8, addend: 0x0, symName: __ZNKSt3__110unique_ptrINS_11__tree_nodeINS_12__value_typeIcP7adjNodeEEPvEENS_22__tree_node_destructorINS_9allocatorIS7_EEEEE3getB7v160006Ev, symObjAddr: 0x3DA4, symBinAddr: 0x100007674, symSize: 0x28 }
  - { offsetInCU: 0x232A9, offset: 0x232A9, size: 0x8, addend: 0x0, symName: __ZNSt3__110unique_ptrINS_11__tree_nodeINS_12__value_typeIcP7adjNodeEEPvEENS_22__tree_node_destructorINS_9allocatorIS7_EEEEE7releaseB7v160006Ev, symObjAddr: 0x3DCC, symBinAddr: 0x10000769C, symSize: 0x44 }
  - { offsetInCU: 0x232DE, offset: 0x232DE, size: 0x8, addend: 0x0, symName: __ZNSt3__110unique_ptrINS_11__tree_nodeINS_12__value_typeIcP7adjNodeEEPvEENS_22__tree_node_destructorINS_9allocatorIS7_EEEEED1B7v160006Ev, symObjAddr: 0x3E10, symBinAddr: 0x1000076E0, symSize: 0x2C }
  - { offsetInCU: 0x23308, offset: 0x23308, size: 0x8, addend: 0x0, symName: __ZNSt3__115__tree_iteratorINS_12__value_typeIcP7adjNodeEEPNS_11__tree_nodeIS4_PvEElEC1B7v160006ES8_, symObjAddr: 0x3E3C, symBinAddr: 0x10000770C, symSize: 0x34 }
  - { offsetInCU: 0x2334B, offset: 0x2334B, size: 0x8, addend: 0x0, symName: __ZNSt3__14pairINS_15__tree_iteratorINS_12__value_typeIcP7adjNodeEEPNS_11__tree_nodeIS5_PvEElEEbEC1B7v160006ISA_RbLS7_0EEEOT_OT0_, symObjAddr: 0x3E70, symBinAddr: 0x100007740, symSize: 0x3C }
  - { offsetInCU: 0x233A9, offset: 0x233A9, size: 0x8, addend: 0x0, symName: __ZNKSt3__16__treeINS_12__value_typeIcP7adjNodeEENS_19__map_value_compareIcS4_NS_4lessIcEELb1EEENS_9allocatorIS4_EEE6__rootB7v160006Ev, symObjAddr: 0x3EAC, symBinAddr: 0x10000777C, symSize: 0x28 }
  - { offsetInCU: 0x233CF, offset: 0x233CF, size: 0x8, addend: 0x0, symName: __ZNKSt3__16__treeINS_12__value_typeIcP7adjNodeEENS_19__map_value_compareIcS4_NS_4lessIcEELb1EEENS_9allocatorIS4_EEE10__root_ptrEv, symObjAddr: 0x3ED4, symBinAddr: 0x1000077A4, symSize: 0x24 }
  - { offsetInCU: 0x233F5, offset: 0x233F5, size: 0x8, addend: 0x0, symName: __ZNSt3__16__treeINS_12__value_typeIcP7adjNodeEENS_19__map_value_compareIcS4_NS_4lessIcEELb1EEENS_9allocatorIS4_EEE10value_compB7v160006Ev, symObjAddr: 0x3EF8, symBinAddr: 0x1000077C8, symSize: 0x28 }
  - { offsetInCU: 0x2341B, offset: 0x2341B, size: 0x8, addend: 0x0, symName: __ZNKSt3__119__map_value_compareIcNS_12__value_typeIcP7adjNodeEENS_4lessIcEELb1EEclB7v160006ERKcRKS4_, symObjAddr: 0x3F20, symBinAddr: 0x1000077F0, symSize: 0x50 }
  - { offsetInCU: 0x2345F, offset: 0x2345F, size: 0x8, addend: 0x0, symName: __ZNKSt3__119__map_value_compareIcNS_12__value_typeIcP7adjNodeEENS_4lessIcEELb1EEclB7v160006ERKS4_RKc, symObjAddr: 0x3F70, symBinAddr: 0x100007840, symSize: 0x48 }
  - { offsetInCU: 0x234A3, offset: 0x234A3, size: 0x8, addend: 0x0, symName: __ZNKSt3__16__treeINS_12__value_typeIcP7adjNodeEENS_19__map_value_compareIcS4_NS_4lessIcEELb1EEENS_9allocatorIS4_EEE10__end_nodeB7v160006Ev, symObjAddr: 0x3FB8, symBinAddr: 0x100007888, symSize: 0x2C }
  - { offsetInCU: 0x234C9, offset: 0x234C9, size: 0x8, addend: 0x0, symName: __ZNKSt3__117__compressed_pairINS_15__tree_end_nodeIPNS_16__tree_node_baseIPvEEEENS_9allocatorINS_11__tree_nodeINS_12__value_typeIcP7adjNodeEES3_EEEEE5firstB7v160006Ev, symObjAddr: 0x3FE4, symBinAddr: 0x1000078B4, symSize: 0x24 }
  - { offsetInCU: 0x234EF, offset: 0x234EF, size: 0x8, addend: 0x0, symName: __ZNKSt3__122__compressed_pair_elemINS_15__tree_end_nodeIPNS_16__tree_node_baseIPvEEEELi0ELb0EE5__getB7v160006Ev, symObjAddr: 0x4008, symBinAddr: 0x1000078D8, symSize: 0x14 }
  - { offsetInCU: 0x23515, offset: 0x23515, size: 0x8, addend: 0x0, symName: __ZNSt3__117__compressed_pairImNS_19__map_value_compareIcNS_12__value_typeIcP7adjNodeEENS_4lessIcEELb1EEEE6secondB7v160006Ev, symObjAddr: 0x401C, symBinAddr: 0x1000078EC, symSize: 0x24 }
  - { offsetInCU: 0x2353B, offset: 0x2353B, size: 0x8, addend: 0x0, symName: __ZNSt3__122__compressed_pair_elemINS_19__map_value_compareIcNS_12__value_typeIcP7adjNodeEENS_4lessIcEELb1EEELi1ELb1EE5__getB7v160006Ev, symObjAddr: 0x4040, symBinAddr: 0x100007910, symSize: 0x14 }
  - { offsetInCU: 0x23561, offset: 0x23561, size: 0x8, addend: 0x0, symName: __ZNKSt3__14lessIcEclB7v160006ERKcS3_, symObjAddr: 0x4054, symBinAddr: 0x100007924, symSize: 0x34 }
  - { offsetInCU: 0x235A5, offset: 0x235A5, size: 0x8, addend: 0x0, symName: __ZNKSt3__112__value_typeIcP7adjNodeE11__get_valueB7v160006Ev, symObjAddr: 0x4088, symBinAddr: 0x100007958, symSize: 0x14 }
  - { offsetInCU: 0x235CB, offset: 0x235CB, size: 0x8, addend: 0x0, symName: __ZNSt3__16__treeINS_12__value_typeIcP7adjNodeEENS_19__map_value_compareIcS4_NS_4lessIcEELb1EEENS_9allocatorIS4_EEE12__node_allocB7v160006Ev, symObjAddr: 0x409C, symBinAddr: 0x10000796C, symSize: 0x28 }
  - { offsetInCU: 0x235F1, offset: 0x235F1, size: 0x8, addend: 0x0, symName: __ZNSt3__116allocator_traitsINS_9allocatorINS_11__tree_nodeINS_12__value_typeIcP7adjNodeEEPvEEEEE8allocateB7v160006ERS9_m, symObjAddr: 0x40C4, symBinAddr: 0x100007994, symSize: 0x2C }
  - { offsetInCU: 0x23624, offset: 0x23624, size: 0x8, addend: 0x0, symName: __ZNSt3__122__tree_node_destructorINS_9allocatorINS_11__tree_nodeINS_12__value_typeIcP7adjNodeEEPvEEEEEC1B7v160006ERS9_b, symObjAddr: 0x40F0, symBinAddr: 0x1000079C0, symSize: 0x48 }
  - { offsetInCU: 0x23671, offset: 0x23671, size: 0x8, addend: 0x0, symName: __ZNSt3__110unique_ptrINS_11__tree_nodeINS_12__value_typeIcP7adjNodeEEPvEENS_22__tree_node_destructorINS_9allocatorIS7_EEEEEC1B7v160006ILb1EvEEPS7_NS_16__dependent_typeINS_27__unique_ptr_deleter_sfinaeISB_EEXT_EE20__good_rval_ref_typeE, symObjAddr: 0x4138, symBinAddr: 0x100007A08, symSize: 0x3C }
  - { offsetInCU: 0x236C2, offset: 0x236C2, size: 0x8, addend: 0x0, symName: __ZNSt3__116allocator_traitsINS_9allocatorINS_11__tree_nodeINS_12__value_typeIcP7adjNodeEEPvEEEEE9constructB7v160006INS_4pairIKcS5_EEJRKNS_21piecewise_construct_tENS_5tupleIJRSD_EEENSI_IJEEEEvEEvRS9_PT_DpOT0_, symObjAddr: 0x4174, symBinAddr: 0x100007A44, symSize: 0x44 }
  - { offsetInCU: 0x23741, offset: 0x23741, size: 0x8, addend: 0x0, symName: __ZNSt3__122__tree_key_value_typesINS_12__value_typeIcP7adjNodeEEE9__get_ptrB7v160006ERS4_, symObjAddr: 0x41B8, symBinAddr: 0x100007A88, symSize: 0x24 }
  - { offsetInCU: 0x23765, offset: 0x23765, size: 0x8, addend: 0x0, symName: __ZNKSt3__110unique_ptrINS_11__tree_nodeINS_12__value_typeIcP7adjNodeEEPvEENS_22__tree_node_destructorINS_9allocatorIS7_EEEEEptB7v160006Ev, symObjAddr: 0x41DC, symBinAddr: 0x100007AAC, symSize: 0x28 }
  - { offsetInCU: 0x2378B, offset: 0x2378B, size: 0x8, addend: 0x0, symName: __ZNSt3__110unique_ptrINS_11__tree_nodeINS_12__value_typeIcP7adjNodeEEPvEENS_22__tree_node_destructorINS_9allocatorIS7_EEEEE11get_deleterB7v160006Ev, symObjAddr: 0x4204, symBinAddr: 0x100007AD4, symSize: 0x24 }
  - { offsetInCU: 0x237B1, offset: 0x237B1, size: 0x8, addend: 0x0, symName: __ZNSt3__117__compressed_pairINS_15__tree_end_nodeIPNS_16__tree_node_baseIPvEEEENS_9allocatorINS_11__tree_nodeINS_12__value_typeIcP7adjNodeEES3_EEEEE6secondB7v160006Ev, symObjAddr: 0x4228, symBinAddr: 0x100007AF8, symSize: 0x24 }
  - { offsetInCU: 0x237D7, offset: 0x237D7, size: 0x8, addend: 0x0, symName: __ZNSt3__122__compressed_pair_elemINS_9allocatorINS_11__tree_nodeINS_12__value_typeIcP7adjNodeEEPvEEEELi1ELb1EE5__getB7v160006Ev, symObjAddr: 0x424C, symBinAddr: 0x100007B1C, symSize: 0x14 }
  - { offsetInCU: 0x237FD, offset: 0x237FD, size: 0x8, addend: 0x0, symName: __ZNSt3__19allocatorINS_11__tree_nodeINS_12__value_typeIcP7adjNodeEEPvEEE8allocateB7v160006Em, symObjAddr: 0x4260, symBinAddr: 0x100007B30, symSize: 0x5C }
  - { offsetInCU: 0x2383B, offset: 0x2383B, size: 0x8, addend: 0x0, symName: __ZNSt3__116allocator_traitsINS_9allocatorINS_11__tree_nodeINS_12__value_typeIcP7adjNodeEEPvEEEEE8max_sizeB7v160006IS9_vEEmRKS9_, symObjAddr: 0x42BC, symBinAddr: 0x100007B8C, symSize: 0x24 }
  - { offsetInCU: 0x23869, offset: 0x23869, size: 0x8, addend: 0x0, symName: __ZNKSt3__19allocatorINS_11__tree_nodeINS_12__value_typeIcP7adjNodeEEPvEEE8max_sizeB7v160006Ev, symObjAddr: 0x433C, symBinAddr: 0x100007C0C, symSize: 0x18 }
  - { offsetInCU: 0x2388F, offset: 0x2388F, size: 0x8, addend: 0x0, symName: __ZNSt3__122__tree_node_destructorINS_9allocatorINS_11__tree_nodeINS_12__value_typeIcP7adjNodeEEPvEEEEEC2B7v160006ERS9_b, symObjAddr: 0x4378, symBinAddr: 0x100007C48, symSize: 0x38 }
  - { offsetInCU: 0x238D7, offset: 0x238D7, size: 0x8, addend: 0x0, symName: __ZNSt3__110unique_ptrINS_11__tree_nodeINS_12__value_typeIcP7adjNodeEEPvEENS_22__tree_node_destructorINS_9allocatorIS7_EEEEEC2B7v160006ILb1EvEEPS7_NS_16__dependent_typeINS_27__unique_ptr_deleter_sfinaeISB_EEXT_EE20__good_rval_ref_typeE, symObjAddr: 0x43B0, symBinAddr: 0x100007C80, symSize: 0x48 }
  - { offsetInCU: 0x23928, offset: 0x23928, size: 0x8, addend: 0x0, symName: __ZNSt3__117__compressed_pairIPNS_11__tree_nodeINS_12__value_typeIcP7adjNodeEEPvEENS_22__tree_node_destructorINS_9allocatorIS7_EEEEEC1B7v160006IRS8_SC_EEOT_OT0_, symObjAddr: 0x43F8, symBinAddr: 0x100007CC8, symSize: 0x3C }
  - { offsetInCU: 0x23980, offset: 0x23980, size: 0x8, addend: 0x0, symName: __ZNSt3__117__compressed_pairIPNS_11__tree_nodeINS_12__value_typeIcP7adjNodeEEPvEENS_22__tree_node_destructorINS_9allocatorIS7_EEEEEC2B7v160006IRS8_SC_EEOT_OT0_, symObjAddr: 0x4434, symBinAddr: 0x100007D04, symSize: 0x48 }
  - { offsetInCU: 0x239D8, offset: 0x239D8, size: 0x8, addend: 0x0, symName: __ZNSt3__122__compressed_pair_elemIPNS_11__tree_nodeINS_12__value_typeIcP7adjNodeEEPvEELi0ELb0EEC2B7v160006IRS8_vEEOT_, symObjAddr: 0x447C, symBinAddr: 0x100007D4C, symSize: 0x24 }
  - { offsetInCU: 0x23A1A, offset: 0x23A1A, size: 0x8, addend: 0x0, symName: __ZNSt3__122__compressed_pair_elemINS_22__tree_node_destructorINS_9allocatorINS_11__tree_nodeINS_12__value_typeIcP7adjNodeEEPvEEEEEELi1ELb0EEC2B7v160006ISB_vEEOT_, symObjAddr: 0x44A0, symBinAddr: 0x100007D70, symSize: 0x24 }
  - { offsetInCU: 0x23A5C, offset: 0x23A5C, size: 0x8, addend: 0x0, symName: __ZNSt3__19allocatorINS_11__tree_nodeINS_12__value_typeIcP7adjNodeEEPvEEE9constructB7v160006INS_4pairIKcS4_EEJRKNS_21piecewise_construct_tENS_5tupleIJRSB_EEENSG_IJEEEEEEvPT_DpOT0_, symObjAddr: 0x44C4, symBinAddr: 0x100007D94, symSize: 0x44 }
  - { offsetInCU: 0x23AD8, offset: 0x23AD8, size: 0x8, addend: 0x0, symName: __ZNSt3__14pairIKcP7adjNodeEC1B7v160006IJRS1_EJEEENS_21piecewise_construct_tENS_5tupleIJDpT_EEENS8_IJDpT0_EEE, symObjAddr: 0x4508, symBinAddr: 0x100007DD8, symSize: 0x44 }
  - { offsetInCU: 0x23B3F, offset: 0x23B3F, size: 0x8, addend: 0x0, symName: __ZNSt3__14pairIKcP7adjNodeEC1B7v160006IJRS1_EJEJLm0EEJEEENS_21piecewise_construct_tERNS_5tupleIJDpT_EEERNS8_IJDpT0_EEENS_15__tuple_indicesIJXspT1_EEEENSH_IJXspT2_EEEE, symObjAddr: 0x454C, symBinAddr: 0x100007E1C, symSize: 0x3C }
  - { offsetInCU: 0x23BCC, offset: 0x23BCC, size: 0x8, addend: 0x0, symName: __ZNSt3__14pairIKcP7adjNodeEC2B7v160006IJRS1_EJEJLm0EEJEEENS_21piecewise_construct_tERNS_5tupleIJDpT_EEERNS8_IJDpT0_EEENS_15__tuple_indicesIJXspT1_EEEENSH_IJXspT2_EEEE, symObjAddr: 0x4588, symBinAddr: 0x100007E58, symSize: 0x48 }
  - { offsetInCU: 0x23C59, offset: 0x23C59, size: 0x8, addend: 0x0, symName: __ZNSt3__112__tuple_leafILm0ERKcLb0EE3getB7v160006Ev, symObjAddr: 0x45F4, symBinAddr: 0x100007EC4, symSize: 0x18 }
  - { offsetInCU: 0x23C7F, offset: 0x23C7F, size: 0x8, addend: 0x0, symName: __ZNKSt3__117__compressed_pairIPNS_11__tree_nodeINS_12__value_typeIcP7adjNodeEEPvEENS_22__tree_node_destructorINS_9allocatorIS7_EEEEE5firstB7v160006Ev, symObjAddr: 0x460C, symBinAddr: 0x100007EDC, symSize: 0x24 }
  - { offsetInCU: 0x23CA5, offset: 0x23CA5, size: 0x8, addend: 0x0, symName: __ZNKSt3__122__compressed_pair_elemIPNS_11__tree_nodeINS_12__value_typeIcP7adjNodeEEPvEELi0ELb0EE5__getB7v160006Ev, symObjAddr: 0x4630, symBinAddr: 0x100007F00, symSize: 0x14 }
  - { offsetInCU: 0x23CCB, offset: 0x23CCB, size: 0x8, addend: 0x0, symName: __ZNSt3__117__compressed_pairIPNS_11__tree_nodeINS_12__value_typeIcP7adjNodeEEPvEENS_22__tree_node_destructorINS_9allocatorIS7_EEEEE6secondB7v160006Ev, symObjAddr: 0x4644, symBinAddr: 0x100007F14, symSize: 0x28 }
  - { offsetInCU: 0x23CF1, offset: 0x23CF1, size: 0x8, addend: 0x0, symName: __ZNSt3__122__compressed_pair_elemINS_22__tree_node_destructorINS_9allocatorINS_11__tree_nodeINS_12__value_typeIcP7adjNodeEEPvEEEEEELi1ELb0EE5__getB7v160006Ev, symObjAddr: 0x466C, symBinAddr: 0x100007F3C, symSize: 0x14 }
  - { offsetInCU: 0x23D17, offset: 0x23D17, size: 0x8, addend: 0x0, symName: __ZNSt3__16__treeINS_12__value_typeIcP7adjNodeEENS_19__map_value_compareIcS4_NS_4lessIcEELb1EEENS_9allocatorIS4_EEE4sizeB7v160006Ev, symObjAddr: 0x49AC, symBinAddr: 0x10000827C, symSize: 0x28 }
  - { offsetInCU: 0x23D3D, offset: 0x23D3D, size: 0x8, addend: 0x0, symName: __ZNKSt3__116__tree_node_baseIPvE15__parent_unsafeB7v160006Ev, symObjAddr: 0x49D4, symBinAddr: 0x1000082A4, symSize: 0x18 }
  - { offsetInCU: 0x23D63, offset: 0x23D63, size: 0x8, addend: 0x0, symName: __ZNSt3__116__tree_node_baseIPvE12__set_parentB7v160006EPS2_, symObjAddr: 0x4BBC, symBinAddr: 0x10000848C, symSize: 0x20 }
  - { offsetInCU: 0x23D98, offset: 0x23D98, size: 0x8, addend: 0x0, symName: __ZNSt3__117__compressed_pairImNS_19__map_value_compareIcNS_12__value_typeIcP7adjNodeEENS_4lessIcEELb1EEEE5firstB7v160006Ev, symObjAddr: 0x4BDC, symBinAddr: 0x1000084AC, symSize: 0x24 }
  - { offsetInCU: 0x23DBE, offset: 0x23DBE, size: 0x8, addend: 0x0, symName: __ZNSt3__122__compressed_pair_elemImLi0ELb0EE5__getB7v160006Ev, symObjAddr: 0x4C00, symBinAddr: 0x1000084D0, symSize: 0x14 }
  - { offsetInCU: 0x23DE4, offset: 0x23DE4, size: 0x8, addend: 0x0, symName: __ZNSt3__117__compressed_pairIPNS_11__tree_nodeINS_12__value_typeIcP7adjNodeEEPvEENS_22__tree_node_destructorINS_9allocatorIS7_EEEEE5firstB7v160006Ev, symObjAddr: 0x4C14, symBinAddr: 0x1000084E4, symSize: 0x24 }
  - { offsetInCU: 0x23E0A, offset: 0x23E0A, size: 0x8, addend: 0x0, symName: __ZNSt3__122__compressed_pair_elemIPNS_11__tree_nodeINS_12__value_typeIcP7adjNodeEEPvEELi0ELb0EE5__getB7v160006Ev, symObjAddr: 0x4C38, symBinAddr: 0x100008508, symSize: 0x14 }
  - { offsetInCU: 0x23E30, offset: 0x23E30, size: 0x8, addend: 0x0, symName: __ZNSt3__110unique_ptrINS_11__tree_nodeINS_12__value_typeIcP7adjNodeEEPvEENS_22__tree_node_destructorINS_9allocatorIS7_EEEEED2B7v160006Ev, symObjAddr: 0x4C4C, symBinAddr: 0x10000851C, symSize: 0x30 }
  - { offsetInCU: 0x23E5A, offset: 0x23E5A, size: 0x8, addend: 0x0, symName: __ZNSt3__110unique_ptrINS_11__tree_nodeINS_12__value_typeIcP7adjNodeEEPvEENS_22__tree_node_destructorINS_9allocatorIS7_EEEEE5resetB7v160006EPS7_, symObjAddr: 0x4C7C, symBinAddr: 0x10000854C, symSize: 0x78 }
  - { offsetInCU: 0x23E9E, offset: 0x23E9E, size: 0x8, addend: 0x0, symName: __ZNSt3__122__tree_node_destructorINS_9allocatorINS_11__tree_nodeINS_12__value_typeIcP7adjNodeEEPvEEEEEclB7v160006EPS8_, symObjAddr: 0x4CF4, symBinAddr: 0x1000085C4, symSize: 0x98 }
  - { offsetInCU: 0x23ED3, offset: 0x23ED3, size: 0x8, addend: 0x0, symName: __ZNSt3__116allocator_traitsINS_9allocatorINS_11__tree_nodeINS_12__value_typeIcP7adjNodeEEPvEEEEE7destroyB7v160006INS_4pairIKcS5_EEvvEEvRS9_PT_, symObjAddr: 0x4D8C, symBinAddr: 0x10000865C, symSize: 0x14 }
  - { offsetInCU: 0x23F0D, offset: 0x23F0D, size: 0x8, addend: 0x0, symName: __ZNSt3__116allocator_traitsINS_9allocatorINS_11__tree_nodeINS_12__value_typeIcP7adjNodeEEPvEEEEE10deallocateB7v160006ERS9_PS8_m, symObjAddr: 0x4DA0, symBinAddr: 0x100008670, symSize: 0x34 }
  - { offsetInCU: 0x23F4F, offset: 0x23F4F, size: 0x8, addend: 0x0, symName: __ZNSt3__19allocatorINS_11__tree_nodeINS_12__value_typeIcP7adjNodeEEPvEEE10deallocateB7v160006EPS7_m, symObjAddr: 0x4DD4, symBinAddr: 0x1000086A4, symSize: 0x44 }
  - { offsetInCU: 0x23F91, offset: 0x23F91, size: 0x8, addend: 0x0, symName: __ZNSt3__115__tree_iteratorINS_12__value_typeIcP7adjNodeEEPNS_11__tree_nodeIS4_PvEElEC2B7v160006ES8_, symObjAddr: 0x4E18, symBinAddr: 0x1000086E8, symSize: 0x20 }
  - { offsetInCU: 0x23FCA, offset: 0x23FCA, size: 0x8, addend: 0x0, symName: __ZNSt3__14pairINS_15__tree_iteratorINS_12__value_typeIcP7adjNodeEEPNS_11__tree_nodeIS5_PvEElEEbEC2B7v160006ISA_RbLS7_0EEEOT_OT0_, symObjAddr: 0x4E38, symBinAddr: 0x100008708, symSize: 0x38 }
  - { offsetInCU: 0x24028, offset: 0x24028, size: 0x8, addend: 0x0, symName: __ZNSt3__15tupleIJRKcEEC1B7v160006INS_4_AndELi0EEES2_, symObjAddr: 0x4E70, symBinAddr: 0x100008740, symSize: 0x34 }
  - { offsetInCU: 0x24070, offset: 0x24070, size: 0x8, addend: 0x0, symName: __ZNSt3__15tupleIJRKcEEC2B7v160006INS_4_AndELi0EEES2_, symObjAddr: 0x4EA4, symBinAddr: 0x100008774, symSize: 0x34 }
  - { offsetInCU: 0x240B8, offset: 0x240B8, size: 0x8, addend: 0x0, symName: __ZNSt3__112__tuple_implINS_15__tuple_indicesIJLm0EEEEJRKcEEC1B7v160006IJLm0EEJS4_EJEJEJS4_EEENS1_IJXspT_EEEENS_13__tuple_typesIJDpT0_EEENS1_IJXspT1_EEEENS8_IJDpT2_EEEDpOT3_, symObjAddr: 0x4ED8, symBinAddr: 0x1000087A8, symSize: 0x34 }
  - { offsetInCU: 0x24149, offset: 0x24149, size: 0x8, addend: 0x0, symName: __ZNSt3__112__tuple_implINS_15__tuple_indicesIJLm0EEEEJRKcEEC2B7v160006IJLm0EEJS4_EJEJEJS4_EEENS1_IJXspT_EEEENS_13__tuple_typesIJDpT0_EEENS1_IJXspT1_EEEENS8_IJDpT2_EEEDpOT3_, symObjAddr: 0x4F0C, symBinAddr: 0x1000087DC, symSize: 0x34 }
  - { offsetInCU: 0x241DA, offset: 0x241DA, size: 0x8, addend: 0x0, symName: __ZNSt3__112__tuple_leafILm0ERKcLb0EEC2B7v160006IS2_vEEOT_, symObjAddr: 0x4F40, symBinAddr: 0x100008810, symSize: 0x20 }
  - { offsetInCU: 0x2421D, offset: 0x2421D, size: 0x8, addend: 0x0, symName: __ZNSt3__114pointer_traitsIPNS_12__value_typeIcP7adjNodeEEE10pointer_toB7v160006ERS4_, symObjAddr: 0x4F60, symBinAddr: 0x100008830, symSize: 0x14 }
  - { offsetInCU: 0x24240, offset: 0x24240, size: 0x8, addend: 0x0, symName: __ZNKSt3__115__tree_iteratorINS_12__value_typeIcP7adjNodeEEPNS_11__tree_nodeIS4_PvEElE8__get_npB7v160006Ev, symObjAddr: 0x4F74, symBinAddr: 0x100008844, symSize: 0x18 }
  - { offsetInCU: 0x24266, offset: 0x24266, size: 0x8, addend: 0x0, symName: __ZNSt3__13mapIcP7adjNodeNS_4lessIcEENS_9allocatorINS_4pairIKcS2_EEEEED2B7v160006Ev, symObjAddr: 0x4F8C, symBinAddr: 0x10000885C, symSize: 0x2C }
  - { offsetInCU: 0x24290, offset: 0x24290, size: 0x8, addend: 0x0, symName: __ZNSt3__16__treeINS_12__value_typeIcP7adjNodeEENS_19__map_value_compareIcS4_NS_4lessIcEELb1EEENS_9allocatorIS4_EEED1Ev, symObjAddr: 0x4FB8, symBinAddr: 0x100008888, symSize: 0x2C }
  - { offsetInCU: 0x242BC, offset: 0x242BC, size: 0x8, addend: 0x0, symName: __ZNSt3__16__treeINS_12__value_typeIcP7adjNodeEENS_19__map_value_compareIcS4_NS_4lessIcEELb1EEENS_9allocatorIS4_EEED2Ev, symObjAddr: 0x4FE4, symBinAddr: 0x1000088B4, symSize: 0x38 }
  - { offsetInCU: 0x242E8, offset: 0x242E8, size: 0x8, addend: 0x0, symName: __ZNSt3__16__treeINS_12__value_typeIcP7adjNodeEENS_19__map_value_compareIcS4_NS_4lessIcEELb1EEENS_9allocatorIS4_EEE7destroyEPNS_11__tree_nodeIS4_PvEE, symObjAddr: 0x501C, symBinAddr: 0x1000088EC, symSize: 0xA8 }
  - { offsetInCU: 0x24334, offset: 0x24334, size: 0x8, addend: 0x0, symName: __ZN8DiaGraphC2ERKS_, symObjAddr: 0x50C4, symBinAddr: 0x100008994, symSize: 0x34 }
  - { offsetInCU: 0x24369, offset: 0x24369, size: 0x8, addend: 0x0, symName: __ZNSt3__13mapIcP7adjNodeNS_4lessIcEENS_9allocatorINS_4pairIKcS2_EEEEEC1B7v160006ERKSA_, symObjAddr: 0x50F8, symBinAddr: 0x1000089C8, symSize: 0x34 }
  - { offsetInCU: 0x243A2, offset: 0x243A2, size: 0x8, addend: 0x0, symName: __ZNSt3__13mapIcP7adjNodeNS_4lessIcEENS_9allocatorINS_4pairIKcS2_EEEEEC2B7v160006ERKSA_, symObjAddr: 0x512C, symBinAddr: 0x1000089FC, symSize: 0x88 }
  - { offsetInCU: 0x243DB, offset: 0x243DB, size: 0x8, addend: 0x0, symName: __ZNSt3__16__treeINS_12__value_typeIcP7adjNodeEENS_19__map_value_compareIcS4_NS_4lessIcEELb1EEENS_9allocatorIS4_EEEC1ERKSB_, symObjAddr: 0x51B4, symBinAddr: 0x100008A84, symSize: 0x34 }
  - { offsetInCU: 0x24416, offset: 0x24416, size: 0x8, addend: 0x0, symName: __ZNSt3__13mapIcP7adjNodeNS_4lessIcEENS_9allocatorINS_4pairIKcS2_EEEEE6insertB7v160006INS_20__map_const_iteratorINS_21__tree_const_iteratorINS_12__value_typeIcS2_EEPNS_11__tree_nodeISF_PvEElEEEEEEvT_SM_, symObjAddr: 0x51E8, symBinAddr: 0x100008AB8, symSize: 0x8C }
  - { offsetInCU: 0x24480, offset: 0x24480, size: 0x8, addend: 0x0, symName: __ZNSt3__16__treeINS_12__value_typeIcP7adjNodeEENS_19__map_value_compareIcS4_NS_4lessIcEELb1EEENS_9allocatorIS4_EEEC2ERKSB_, symObjAddr: 0x5274, symBinAddr: 0x100008B44, symSize: 0x9C }
  - { offsetInCU: 0x244BB, offset: 0x244BB, size: 0x8, addend: 0x0, symName: __ZNSt3__116allocator_traitsINS_9allocatorINS_11__tree_nodeINS_12__value_typeIcP7adjNodeEEPvEEEEE37select_on_container_copy_constructionB7v160006IS9_vvEES9_RKS9_, symObjAddr: 0x5310, symBinAddr: 0x100008BE0, symSize: 0x10 }
  - { offsetInCU: 0x244EA, offset: 0x244EA, size: 0x8, addend: 0x0, symName: __ZNKSt3__16__treeINS_12__value_typeIcP7adjNodeEENS_19__map_value_compareIcS4_NS_4lessIcEELb1EEENS_9allocatorIS4_EEE12__node_allocB7v160006Ev, symObjAddr: 0x5320, symBinAddr: 0x100008BF0, symSize: 0x28 }
  - { offsetInCU: 0x2451A, offset: 0x2451A, size: 0x8, addend: 0x0, symName: __ZNSt3__117__compressed_pairINS_15__tree_end_nodeIPNS_16__tree_node_baseIPvEEEENS_9allocatorINS_11__tree_nodeINS_12__value_typeIcP7adjNodeEES3_EEEEEC1B7v160006INS_18__default_init_tagESE_EEOT_OT0_, symObjAddr: 0x5348, symBinAddr: 0x100008C18, symSize: 0x3C }
  - { offsetInCU: 0x24572, offset: 0x24572, size: 0x8, addend: 0x0, symName: __ZNKSt3__16__treeINS_12__value_typeIcP7adjNodeEENS_19__map_value_compareIcS4_NS_4lessIcEELb1EEENS_9allocatorIS4_EEE10value_compB7v160006Ev, symObjAddr: 0x5384, symBinAddr: 0x100008C54, symSize: 0x28 }
  - { offsetInCU: 0x24598, offset: 0x24598, size: 0x8, addend: 0x0, symName: __ZNKSt3__117__compressed_pairINS_15__tree_end_nodeIPNS_16__tree_node_baseIPvEEEENS_9allocatorINS_11__tree_nodeINS_12__value_typeIcP7adjNodeEES3_EEEEE6secondB7v160006Ev, symObjAddr: 0x53AC, symBinAddr: 0x100008C7C, symSize: 0x24 }
  - { offsetInCU: 0x245BE, offset: 0x245BE, size: 0x8, addend: 0x0, symName: __ZNKSt3__122__compressed_pair_elemINS_9allocatorINS_11__tree_nodeINS_12__value_typeIcP7adjNodeEEPvEEEELi1ELb1EE5__getB7v160006Ev, symObjAddr: 0x53D0, symBinAddr: 0x100008CA0, symSize: 0x14 }
  - { offsetInCU: 0x245E4, offset: 0x245E4, size: 0x8, addend: 0x0, symName: __ZNSt3__117__compressed_pairINS_15__tree_end_nodeIPNS_16__tree_node_baseIPvEEEENS_9allocatorINS_11__tree_nodeINS_12__value_typeIcP7adjNodeEES3_EEEEEC2B7v160006INS_18__default_init_tagESE_EEOT_OT0_, symObjAddr: 0x53E4, symBinAddr: 0x100008CB4, symSize: 0x40 }
  - { offsetInCU: 0x2463C, offset: 0x2463C, size: 0x8, addend: 0x0, symName: __ZNSt3__122__compressed_pair_elemINS_15__tree_end_nodeIPNS_16__tree_node_baseIPvEEEELi0ELb0EEC2B7v160006ENS_18__default_init_tagE, symObjAddr: 0x5424, symBinAddr: 0x100008CF4, symSize: 0x2C }
  - { offsetInCU: 0x24670, offset: 0x24670, size: 0x8, addend: 0x0, symName: __ZNSt3__122__compressed_pair_elemINS_9allocatorINS_11__tree_nodeINS_12__value_typeIcP7adjNodeEEPvEEEELi1ELb1EEC2B7v160006IS9_vEEOT_, symObjAddr: 0x5450, symBinAddr: 0x100008D20, symSize: 0x18 }
  - { offsetInCU: 0x246B2, offset: 0x246B2, size: 0x8, addend: 0x0, symName: __ZNKSt3__117__compressed_pairImNS_19__map_value_compareIcNS_12__value_typeIcP7adjNodeEENS_4lessIcEELb1EEEE6secondB7v160006Ev, symObjAddr: 0x5468, symBinAddr: 0x100008D38, symSize: 0x24 }
  - { offsetInCU: 0x246D8, offset: 0x246D8, size: 0x8, addend: 0x0, symName: __ZNKSt3__122__compressed_pair_elemINS_19__map_value_compareIcNS_12__value_typeIcP7adjNodeEENS_4lessIcEELb1EEELi1ELb1EE5__getB7v160006Ev, symObjAddr: 0x548C, symBinAddr: 0x100008D5C, symSize: 0x14 }
  - { offsetInCU: 0x246FE, offset: 0x246FE, size: 0x8, addend: 0x0, symName: __ZNKSt3__13mapIcP7adjNodeNS_4lessIcEENS_9allocatorINS_4pairIKcS2_EEEEE4cendB7v160006Ev, symObjAddr: 0x54A0, symBinAddr: 0x100008D70, symSize: 0x2C }
  - { offsetInCU: 0x24724, offset: 0x24724, size: 0x8, addend: 0x0, symName: __ZNSt3__13mapIcP7adjNodeNS_4lessIcEENS_9allocatorINS_4pairIKcS2_EEEEE6insertB7v160006ENS_20__map_const_iteratorINS_21__tree_const_iteratorINS_12__value_typeIcS2_EEPNS_11__tree_nodeISE_PvEElEEEERKS8_, symObjAddr: 0x54CC, symBinAddr: 0x100008D9C, symSize: 0x50 }
  - { offsetInCU: 0x24768, offset: 0x24768, size: 0x8, addend: 0x0, symName: __ZNSt3__120__map_const_iteratorINS_21__tree_const_iteratorINS_12__value_typeIcP7adjNodeEEPNS_11__tree_nodeIS5_PvEElEEEC1B7v160006ESA_, symObjAddr: 0x551C, symBinAddr: 0x100008DEC, symSize: 0x34 }
  - { offsetInCU: 0x247A1, offset: 0x247A1, size: 0x8, addend: 0x0, symName: __ZNSt3__16__treeINS_12__value_typeIcP7adjNodeEENS_19__map_value_compareIcS4_NS_4lessIcEELb1EEENS_9allocatorIS4_EEE15__insert_uniqueB7v160006ENS_21__tree_const_iteratorIS4_PNS_11__tree_nodeIS4_PvEElEERKNS_4pairIKcS3_EE, symObjAddr: 0x5550, symBinAddr: 0x100008E20, symSize: 0x64 }
  - { offsetInCU: 0x247E5, offset: 0x247E5, size: 0x8, addend: 0x0, symName: __ZNSt3__114__map_iteratorINS_15__tree_iteratorINS_12__value_typeIcP7adjNodeEEPNS_11__tree_nodeIS5_PvEElEEEC1B7v160006ESA_, symObjAddr: 0x55B4, symBinAddr: 0x100008E84, symSize: 0x34 }
  - { offsetInCU: 0x2481E, offset: 0x2481E, size: 0x8, addend: 0x0, symName: __ZNSt3__16__treeINS_12__value_typeIcP7adjNodeEENS_19__map_value_compareIcS4_NS_4lessIcEELb1EEENS_9allocatorIS4_EEE30__emplace_hint_unique_key_argsIcJRKNS_4pairIKcS3_EEEEENSD_INS_15__tree_iteratorIS4_PNS_11__tree_nodeIS4_PvEElEEbEENS_21__tree_const_iteratorIS4_SM_lEERKT_DpOT0_, symObjAddr: 0x55E8, symBinAddr: 0x100008EB8, symSize: 0x104 }
  - { offsetInCU: 0x248EA, offset: 0x248EA, size: 0x8, addend: 0x0, symName: __ZNSt3__122__tree_key_value_typesINS_12__value_typeIcP7adjNodeEEE9__get_keyB7v160006IKNS_4pairIKcS3_EEEENS_9enable_ifIXsr17__is_same_uncvrefIT_S9_EE5valueERS8_E4typeERSC_, symObjAddr: 0x56EC, symBinAddr: 0x100008FBC, symSize: 0x14 }
  - { offsetInCU: 0x24917, offset: 0x24917, size: 0x8, addend: 0x0, symName: __ZNSt3__16__treeINS_12__value_typeIcP7adjNodeEENS_19__map_value_compareIcS4_NS_4lessIcEELb1EEENS_9allocatorIS4_EEE12__find_equalIcEERPNS_16__tree_node_baseIPvEENS_21__tree_const_iteratorIS4_PNS_11__tree_nodeIS4_SE_EElEERPNS_15__tree_end_nodeISG_EESH_RKT_, symObjAddr: 0x5700, symBinAddr: 0x100008FD0, symSize: 0x304 }
  - { offsetInCU: 0x249C0, offset: 0x249C0, size: 0x8, addend: 0x0, symName: __ZNSt3__16__treeINS_12__value_typeIcP7adjNodeEENS_19__map_value_compareIcS4_NS_4lessIcEELb1EEENS_9allocatorIS4_EEE16__construct_nodeIJRKNS_4pairIKcS3_EEEEENS_10unique_ptrINS_11__tree_nodeIS4_PvEENS_22__tree_node_destructorINS9_ISL_EEEEEEDpOT_, symObjAddr: 0x5A04, symBinAddr: 0x1000092D4, symSize: 0x110 }
  - { offsetInCU: 0x24A21, offset: 0x24A21, size: 0x8, addend: 0x0, symName: __ZNSt3__16__treeINS_12__value_typeIcP7adjNodeEENS_19__map_value_compareIcS4_NS_4lessIcEELb1EEENS_9allocatorIS4_EEE3endB7v160006Ev, symObjAddr: 0x5B44, symBinAddr: 0x100009414, symSize: 0x34 }
  - { offsetInCU: 0x24A47, offset: 0x24A47, size: 0x8, addend: 0x0, symName: __ZNSt3__121__tree_const_iteratorINS_12__value_typeIcP7adjNodeEEPNS_11__tree_nodeIS4_PvEElEC1B7v160006ENS_15__tree_iteratorIS4_S8_lEE, symObjAddr: 0x5B78, symBinAddr: 0x100009448, symSize: 0x34 }
  - { offsetInCU: 0x24A80, offset: 0x24A80, size: 0x8, addend: 0x0, symName: __ZNKSt3__121__tree_const_iteratorINS_12__value_typeIcP7adjNodeEEPNS_11__tree_nodeIS4_PvEElEdeB7v160006Ev, symObjAddr: 0x5BAC, symBinAddr: 0x10000947C, symSize: 0x28 }
  - { offsetInCU: 0x24AA6, offset: 0x24AA6, size: 0x8, addend: 0x0, symName: __ZNSt3__16__treeINS_12__value_typeIcP7adjNodeEENS_19__map_value_compareIcS4_NS_4lessIcEELb1EEENS_9allocatorIS4_EEE5beginB7v160006Ev, symObjAddr: 0x5BD4, symBinAddr: 0x1000094A4, symSize: 0x34 }
  - { offsetInCU: 0x24ACC, offset: 0x24ACC, size: 0x8, addend: 0x0, symName: __ZNSt3__121__tree_const_iteratorINS_12__value_typeIcP7adjNodeEEPNS_11__tree_nodeIS4_PvEElEmmB7v160006Ev, symObjAddr: 0x5C08, symBinAddr: 0x1000094D8, symSize: 0x38 }
  - { offsetInCU: 0x24AF2, offset: 0x24AF2, size: 0x8, addend: 0x0, symName: __ZNKSt3__121__tree_const_iteratorINS_12__value_typeIcP7adjNodeEEPNS_11__tree_nodeIS4_PvEElE8__get_npB7v160006Ev, symObjAddr: 0x5C90, symBinAddr: 0x100009560, symSize: 0x18 }
  - { offsetInCU: 0x24B18, offset: 0x24B18, size: 0x8, addend: 0x0, symName: __ZNSt3__115__tree_iteratorINS_12__value_typeIcP7adjNodeEEPNS_11__tree_nodeIS4_PvEElEC1B7v160006EPNS_15__tree_end_nodeIPNS_16__tree_node_baseIS6_EEEE, symObjAddr: 0x5CA8, symBinAddr: 0x100009578, symSize: 0x34 }
  - { offsetInCU: 0x24B51, offset: 0x24B51, size: 0x8, addend: 0x0, symName: __ZNSt3__115__tree_iteratorINS_12__value_typeIcP7adjNodeEEPNS_11__tree_nodeIS4_PvEElEC2B7v160006EPNS_15__tree_end_nodeIPNS_16__tree_node_baseIS6_EEEE, symObjAddr: 0x5CDC, symBinAddr: 0x1000095AC, symSize: 0x20 }
  - { offsetInCU: 0x24B8A, offset: 0x24B8A, size: 0x8, addend: 0x0, symName: __ZNSt3__121__tree_const_iteratorINS_12__value_typeIcP7adjNodeEEPNS_11__tree_nodeIS4_PvEElEC2B7v160006ENS_15__tree_iteratorIS4_S8_lEE, symObjAddr: 0x5CFC, symBinAddr: 0x1000095CC, symSize: 0x20 }
  - { offsetInCU: 0x24BC3, offset: 0x24BC3, size: 0x8, addend: 0x0, symName: __ZNSt3__121__tree_const_iteratorINS_12__value_typeIcP7adjNodeEEPNS_11__tree_nodeIS4_PvEElEppB7v160006Ev, symObjAddr: 0x5EEC, symBinAddr: 0x1000097BC, symSize: 0x38 }
  - { offsetInCU: 0x24BE9, offset: 0x24BE9, size: 0x8, addend: 0x0, symName: __ZNSt3__116allocator_traitsINS_9allocatorINS_11__tree_nodeINS_12__value_typeIcP7adjNodeEEPvEEEEE9constructB7v160006INS_4pairIKcS5_EEJRKSE_EvEEvRS9_PT_DpOT0_, symObjAddr: 0x5FE4, symBinAddr: 0x1000098B4, symSize: 0x34 }
  - { offsetInCU: 0x24C40, offset: 0x24C40, size: 0x8, addend: 0x0, symName: __ZNSt3__19allocatorINS_11__tree_nodeINS_12__value_typeIcP7adjNodeEEPvEEE9constructB7v160006INS_4pairIKcS4_EEJRKSC_EEEvPT_DpOT0_, symObjAddr: 0x6018, symBinAddr: 0x1000098E8, symSize: 0x28 }
  - { offsetInCU: 0x24C96, offset: 0x24C96, size: 0x8, addend: 0x0, symName: __ZNSt3__114__map_iteratorINS_15__tree_iteratorINS_12__value_typeIcP7adjNodeEEPNS_11__tree_nodeIS5_PvEElEEEC2B7v160006ESA_, symObjAddr: 0x6040, symBinAddr: 0x100009910, symSize: 0x20 }
  - { offsetInCU: 0x24CCF, offset: 0x24CCF, size: 0x8, addend: 0x0, symName: __ZNSt3__120__map_const_iteratorINS_21__tree_const_iteratorINS_12__value_typeIcP7adjNodeEEPNS_11__tree_nodeIS5_PvEElEEEC2B7v160006ESA_, symObjAddr: 0x6060, symBinAddr: 0x100009930, symSize: 0x20 }
  - { offsetInCU: 0x24D08, offset: 0x24D08, size: 0x8, addend: 0x0, symName: __ZN8DiaGraphD2Ev, symObjAddr: 0x6080, symBinAddr: 0x100009950, symSize: 0x2C }
  - { offsetInCU: 0x24D34, offset: 0x24D34, size: 0x8, addend: 0x0, symName: __ZNSt3__111char_traitsIcE6lengthEPKc, symObjAddr: 0x6298, symBinAddr: 0x100009B68, symSize: 0x34 }
  - { offsetInCU: 0x24D75, offset: 0x24D75, size: 0x8, addend: 0x0, symName: __ZNKSt3__113basic_ostreamIcNS_11char_traitsIcEEE6sentrycvbB7v160006Ev, symObjAddr: 0x62CC, symBinAddr: 0x100009B9C, symSize: 0x1C }
  - { offsetInCU: 0x24D9B, offset: 0x24D9B, size: 0x8, addend: 0x0, symName: __ZNSt3__119ostreambuf_iteratorIcNS_11char_traitsIcEEEC1B7v160006ERNS_13basic_ostreamIcS2_EE, symObjAddr: 0x6528, symBinAddr: 0x100009DF8, symSize: 0x34 }
  - { offsetInCU: 0x24DD3, offset: 0x24DD3, size: 0x8, addend: 0x0, symName: __ZNKSt3__18ios_base5flagsB7v160006Ev, symObjAddr: 0x655C, symBinAddr: 0x100009E2C, symSize: 0x18 }
  - { offsetInCU: 0x24DFB, offset: 0x24DFB, size: 0x8, addend: 0x0, symName: __ZNKSt3__19basic_iosIcNS_11char_traitsIcEEE4fillB7v160006Ev, symObjAddr: 0x6574, symBinAddr: 0x100009E44, symSize: 0x64 }
  - { offsetInCU: 0x24E23, offset: 0x24E23, size: 0x8, addend: 0x0, symName: __ZNKSt3__119ostreambuf_iteratorIcNS_11char_traitsIcEEE6failedB7v160006Ev, symObjAddr: 0x65D8, symBinAddr: 0x100009EA8, symSize: 0x24 }
  - { offsetInCU: 0x24E49, offset: 0x24E49, size: 0x8, addend: 0x0, symName: __ZNSt3__19basic_iosIcNS_11char_traitsIcEEE8setstateB7v160006Ej, symObjAddr: 0x65FC, symBinAddr: 0x100009ECC, symSize: 0x2C }
  - { offsetInCU: 0x24E7E, offset: 0x24E7E, size: 0x8, addend: 0x0, symName: __ZNKSt3__18ios_base5widthB7v160006Ev, symObjAddr: 0x6628, symBinAddr: 0x100009EF8, symSize: 0x18 }
  - { offsetInCU: 0x24EA6, offset: 0x24EA6, size: 0x8, addend: 0x0, symName: __ZNSt3__115basic_streambufIcNS_11char_traitsIcEEE5sputnB7v160006EPKcl, symObjAddr: 0x6640, symBinAddr: 0x100009F10, symSize: 0x3C }
  - { offsetInCU: 0x24EE8, offset: 0x24EE8, size: 0x8, addend: 0x0, symName: __ZNSt3__112basic_stringIcNS_11char_traitsIcEENS_9allocatorIcEEEC1B7v160006Emc, symObjAddr: 0x667C, symBinAddr: 0x100009F4C, symSize: 0x3C }
  - { offsetInCU: 0x24F30, offset: 0x24F30, size: 0x8, addend: 0x0, symName: __ZNKSt3__112basic_stringIcNS_11char_traitsIcEENS_9allocatorIcEEE4dataB7v160006Ev, symObjAddr: 0x66B8, symBinAddr: 0x100009F88, symSize: 0x28 }
  - { offsetInCU: 0x24F56, offset: 0x24F56, size: 0x8, addend: 0x0, symName: __ZNSt3__18ios_base5widthB7v160006El, symObjAddr: 0x66E0, symBinAddr: 0x100009FB0, symSize: 0x2C }
  - { offsetInCU: 0x24F9C, offset: 0x24F9C, size: 0x8, addend: 0x0, symName: __ZNSt3__112basic_stringIcNS_11char_traitsIcEENS_9allocatorIcEEEC2B7v160006Emc, symObjAddr: 0x670C, symBinAddr: 0x100009FDC, symSize: 0x54 }
  - { offsetInCU: 0x24FE4, offset: 0x24FE4, size: 0x8, addend: 0x0, symName: __ZNSt3__117__compressed_pairINS_12basic_stringIcNS_11char_traitsIcEENS_9allocatorIcEEE5__repES5_EC1B7v160006INS_18__default_init_tagESA_EEOT_OT0_, symObjAddr: 0x6760, symBinAddr: 0x10000A030, symSize: 0x3C }
  - { offsetInCU: 0x2503C, offset: 0x2503C, size: 0x8, addend: 0x0, symName: __ZNSt3__117__compressed_pairINS_12basic_stringIcNS_11char_traitsIcEENS_9allocatorIcEEE5__repES5_EC2B7v160006INS_18__default_init_tagESA_EEOT_OT0_, symObjAddr: 0x67AC, symBinAddr: 0x10000A07C, symSize: 0x3C }
  - { offsetInCU: 0x25094, offset: 0x25094, size: 0x8, addend: 0x0, symName: __ZNSt3__122__compressed_pair_elemINS_12basic_stringIcNS_11char_traitsIcEENS_9allocatorIcEEE5__repELi0ELb0EEC2B7v160006ENS_18__default_init_tagE, symObjAddr: 0x67E8, symBinAddr: 0x10000A0B8, symSize: 0x14 }
  - { offsetInCU: 0x250C8, offset: 0x250C8, size: 0x8, addend: 0x0, symName: __ZNSt3__122__compressed_pair_elemINS_9allocatorIcEELi1ELb1EEC2B7v160006ENS_18__default_init_tagE, symObjAddr: 0x67FC, symBinAddr: 0x10000A0CC, symSize: 0x2C }
  - { offsetInCU: 0x250FC, offset: 0x250FC, size: 0x8, addend: 0x0, symName: __ZNSt3__19allocatorIcEC2B7v160006Ev, symObjAddr: 0x6828, symBinAddr: 0x10000A0F8, symSize: 0x2C }
  - { offsetInCU: 0x25126, offset: 0x25126, size: 0x8, addend: 0x0, symName: __ZNSt3__116__non_trivial_ifILb1ENS_9allocatorIcEEEC2B7v160006Ev, symObjAddr: 0x6854, symBinAddr: 0x10000A124, symSize: 0x14 }
  - { offsetInCU: 0x25150, offset: 0x25150, size: 0x8, addend: 0x0, symName: __ZNKSt3__112basic_stringIcNS_11char_traitsIcEENS_9allocatorIcEEE13__get_pointerB7v160006Ev, symObjAddr: 0x687C, symBinAddr: 0x10000A14C, symSize: 0x54 }
  - { offsetInCU: 0x25176, offset: 0x25176, size: 0x8, addend: 0x0, symName: __ZNKSt3__112basic_stringIcNS_11char_traitsIcEENS_9allocatorIcEEE9__is_longB7v160006Ev, symObjAddr: 0x68D0, symBinAddr: 0x10000A1A0, symSize: 0x38 }
  - { offsetInCU: 0x2519C, offset: 0x2519C, size: 0x8, addend: 0x0, symName: __ZNKSt3__112basic_stringIcNS_11char_traitsIcEENS_9allocatorIcEEE18__get_long_pointerB7v160006Ev, symObjAddr: 0x6908, symBinAddr: 0x10000A1D8, symSize: 0x28 }
  - { offsetInCU: 0x251C2, offset: 0x251C2, size: 0x8, addend: 0x0, symName: __ZNKSt3__112basic_stringIcNS_11char_traitsIcEENS_9allocatorIcEEE19__get_short_pointerB7v160006Ev, symObjAddr: 0x6930, symBinAddr: 0x10000A200, symSize: 0x28 }
  - { offsetInCU: 0x251E8, offset: 0x251E8, size: 0x8, addend: 0x0, symName: __ZNKSt3__117__compressed_pairINS_12basic_stringIcNS_11char_traitsIcEENS_9allocatorIcEEE5__repES5_E5firstB7v160006Ev, symObjAddr: 0x6958, symBinAddr: 0x10000A228, symSize: 0x24 }
  - { offsetInCU: 0x2520E, offset: 0x2520E, size: 0x8, addend: 0x0, symName: __ZNKSt3__122__compressed_pair_elemINS_12basic_stringIcNS_11char_traitsIcEENS_9allocatorIcEEE5__repELi0ELb0EE5__getB7v160006Ev, symObjAddr: 0x697C, symBinAddr: 0x10000A24C, symSize: 0x14 }
  - { offsetInCU: 0x25234, offset: 0x25234, size: 0x8, addend: 0x0, symName: __ZNSt3__114pointer_traitsIPKcE10pointer_toB7v160006ERS1_, symObjAddr: 0x6990, symBinAddr: 0x10000A260, symSize: 0x14 }
  - { offsetInCU: 0x25257, offset: 0x25257, size: 0x8, addend: 0x0, symName: __ZNSt3__119ostreambuf_iteratorIcNS_11char_traitsIcEEEC2B7v160006ERNS_13basic_ostreamIcS2_EE, symObjAddr: 0x69A4, symBinAddr: 0x10000A274, symSize: 0x54 }
  - { offsetInCU: 0x2528F, offset: 0x2528F, size: 0x8, addend: 0x0, symName: __ZNKSt3__19basic_iosIcNS_11char_traitsIcEEE5rdbufB7v160006Ev, symObjAddr: 0x69F8, symBinAddr: 0x10000A2C8, symSize: 0x24 }
  - { offsetInCU: 0x252B7, offset: 0x252B7, size: 0x8, addend: 0x0, symName: __ZNKSt3__18ios_base5rdbufB7v160006Ev, symObjAddr: 0x6A1C, symBinAddr: 0x10000A2EC, symSize: 0x18 }
  - { offsetInCU: 0x252DD, offset: 0x252DD, size: 0x8, addend: 0x0, symName: __ZNSt3__111char_traitsIcE11eq_int_typeEii, symObjAddr: 0x6A34, symBinAddr: 0x10000A304, symSize: 0x28 }
  - { offsetInCU: 0x2530E, offset: 0x2530E, size: 0x8, addend: 0x0, symName: __ZNSt3__111char_traitsIcE3eofEv, symObjAddr: 0x6A5C, symBinAddr: 0x10000A32C, symSize: 0x8 }
  - { offsetInCU: 0x25322, offset: 0x25322, size: 0x8, addend: 0x0, symName: __ZNKSt3__19basic_iosIcNS_11char_traitsIcEEE5widenB7v160006Ec, symObjAddr: 0x6A64, symBinAddr: 0x10000A334, symSize: 0x84 }
  - { offsetInCU: 0x25390, offset: 0x25390, size: 0x8, addend: 0x0, symName: __ZNKSt3__15ctypeIcE5widenB7v160006Ec, symObjAddr: 0x6B14, symBinAddr: 0x10000A3E4, symSize: 0x38 }
  - { offsetInCU: 0x253C5, offset: 0x253C5, size: 0x8, addend: 0x0, symName: __ZNSt3__18ios_base8setstateB7v160006Ej, symObjAddr: 0x6B4C, symBinAddr: 0x10000A41C, symSize: 0x34 }
  - { offsetInCU: 0x253FC, offset: 0x253FC, size: 0x8, addend: 0x0, symName: __ZNSt3__16vectorINS_4pairIccEENS_9allocatorIS2_EEEC2B7v160006Ev, symObjAddr: 0x6BA4, symBinAddr: 0x10000A474, symSize: 0x58 }
  - { offsetInCU: 0x2542B, offset: 0x2542B, size: 0x8, addend: 0x0, symName: __ZNSt3__117__compressed_pairIPNS_4pairIccEENS_9allocatorIS2_EEEC1B7v160006IDnNS_18__default_init_tagEEEOT_OT0_, symObjAddr: 0x6BFC, symBinAddr: 0x10000A4CC, symSize: 0x3C }
  - { offsetInCU: 0x25483, offset: 0x25483, size: 0x8, addend: 0x0, symName: __ZNSt3__117__compressed_pairIPNS_4pairIccEENS_9allocatorIS2_EEEC2B7v160006IDnNS_18__default_init_tagEEEOT_OT0_, symObjAddr: 0x6C48, symBinAddr: 0x10000A518, symSize: 0x40 }
  - { offsetInCU: 0x254DB, offset: 0x254DB, size: 0x8, addend: 0x0, symName: __ZNSt3__122__compressed_pair_elemIPNS_4pairIccEELi0ELb0EEC2B7v160006IDnvEEOT_, symObjAddr: 0x6C88, symBinAddr: 0x10000A558, symSize: 0x1C }
  - { offsetInCU: 0x2551D, offset: 0x2551D, size: 0x8, addend: 0x0, symName: __ZNSt3__122__compressed_pair_elemINS_9allocatorINS_4pairIccEEEELi1ELb1EEC2B7v160006ENS_18__default_init_tagE, symObjAddr: 0x6CA4, symBinAddr: 0x10000A574, symSize: 0x2C }
  - { offsetInCU: 0x25551, offset: 0x25551, size: 0x8, addend: 0x0, symName: __ZNSt3__19allocatorINS_4pairIccEEEC2B7v160006Ev, symObjAddr: 0x6CD0, symBinAddr: 0x10000A5A0, symSize: 0x2C }
  - { offsetInCU: 0x2557B, offset: 0x2557B, size: 0x8, addend: 0x0, symName: __ZNSt3__116__non_trivial_ifILb1ENS_9allocatorINS_4pairIccEEEEEC2B7v160006Ev, symObjAddr: 0x6CFC, symBinAddr: 0x10000A5CC, symSize: 0x14 }
  - { offsetInCU: 0x255A5, offset: 0x255A5, size: 0x8, addend: 0x0, symName: __ZNSt3__16vectorINS_4pairIccEENS_9allocatorIS2_EEED2B7v160006Ev, symObjAddr: 0x6D10, symBinAddr: 0x10000A5E0, symSize: 0x44 }
  - { offsetInCU: 0x255CF, offset: 0x255CF, size: 0x8, addend: 0x0, symName: __ZNSt3__16vectorINS_4pairIccEENS_9allocatorIS2_EEE16__destroy_vectorC1ERS5_, symObjAddr: 0x6D54, symBinAddr: 0x10000A624, symSize: 0x34 }
  - { offsetInCU: 0x25608, offset: 0x25608, size: 0x8, addend: 0x0, symName: __ZNSt3__16vectorINS_4pairIccEENS_9allocatorIS2_EEE16__destroy_vectorclB7v160006Ev, symObjAddr: 0x6D88, symBinAddr: 0x10000A658, symSize: 0x9C }
  - { offsetInCU: 0x2562E, offset: 0x2562E, size: 0x8, addend: 0x0, symName: __ZNSt3__16vectorINS_4pairIccEENS_9allocatorIS2_EEE16__destroy_vectorC2ERS5_, symObjAddr: 0x6E24, symBinAddr: 0x10000A6F4, symSize: 0x20 }
  - { offsetInCU: 0x25667, offset: 0x25667, size: 0x8, addend: 0x0, symName: __ZNKSt3__16vectorINS_4pairIccEENS_9allocatorIS2_EEE17__annotate_deleteB7v160006Ev, symObjAddr: 0x6E44, symBinAddr: 0x10000A714, symSize: 0xB8 }
  - { offsetInCU: 0x2568D, offset: 0x2568D, size: 0x8, addend: 0x0, symName: __ZNSt3__16vectorINS_4pairIccEENS_9allocatorIS2_EEE7__clearB7v160006Ev, symObjAddr: 0x6F0C, symBinAddr: 0x10000A7DC, symSize: 0x28 }
  - { offsetInCU: 0x256B3, offset: 0x256B3, size: 0x8, addend: 0x0, symName: __ZNSt3__116allocator_traitsINS_9allocatorINS_4pairIccEEEEE10deallocateB7v160006ERS4_PS3_m, symObjAddr: 0x6F34, symBinAddr: 0x10000A804, symSize: 0x34 }
  - { offsetInCU: 0x256F5, offset: 0x256F5, size: 0x8, addend: 0x0, symName: __ZNSt3__16vectorINS_4pairIccEENS_9allocatorIS2_EEE7__allocB7v160006Ev, symObjAddr: 0x6F68, symBinAddr: 0x10000A838, symSize: 0x28 }
  - { offsetInCU: 0x2571B, offset: 0x2571B, size: 0x8, addend: 0x0, symName: __ZNKSt3__16vectorINS_4pairIccEENS_9allocatorIS2_EEE8capacityB7v160006Ev, symObjAddr: 0x6F90, symBinAddr: 0x10000A860, symSize: 0x40 }
  - { offsetInCU: 0x25741, offset: 0x25741, size: 0x8, addend: 0x0, symName: __ZNKSt3__16vectorINS_4pairIccEENS_9allocatorIS2_EEE31__annotate_contiguous_containerB7v160006EPKvS7_S7_S7_, symObjAddr: 0x6FD0, symBinAddr: 0x10000A8A0, symSize: 0x20 }
  - { offsetInCU: 0x25793, offset: 0x25793, size: 0x8, addend: 0x0, symName: __ZNKSt3__16vectorINS_4pairIccEENS_9allocatorIS2_EEE4dataB7v160006Ev, symObjAddr: 0x6FF0, symBinAddr: 0x10000A8C0, symSize: 0x28 }
  - { offsetInCU: 0x257B9, offset: 0x257B9, size: 0x8, addend: 0x0, symName: __ZNKSt3__16vectorINS_4pairIccEENS_9allocatorIS2_EEE4sizeB7v160006Ev, symObjAddr: 0x7018, symBinAddr: 0x10000A8E8, symSize: 0x28 }
  - { offsetInCU: 0x257DF, offset: 0x257DF, size: 0x8, addend: 0x0, symName: __ZNSt3__16vectorINS_4pairIccEENS_9allocatorIS2_EEE22__base_destruct_at_endB7v160006EPS2_, symObjAddr: 0x7054, symBinAddr: 0x10000A924, symSize: 0x8C }
  - { offsetInCU: 0x25823, offset: 0x25823, size: 0x8, addend: 0x0, symName: __ZNSt3__116allocator_traitsINS_9allocatorINS_4pairIccEEEEE7destroyB7v160006IS3_vEEvRS4_PT_, symObjAddr: 0x70E0, symBinAddr: 0x10000A9B0, symSize: 0x2C }
  - { offsetInCU: 0x25860, offset: 0x25860, size: 0x8, addend: 0x0, symName: __ZNSt3__19allocatorINS_4pairIccEEE7destroyB7v160006EPS2_, symObjAddr: 0x710C, symBinAddr: 0x10000A9DC, symSize: 0x14 }
  - { offsetInCU: 0x25894, offset: 0x25894, size: 0x8, addend: 0x0, symName: __ZNSt3__19allocatorINS_4pairIccEEE10deallocateB7v160006EPS2_m, symObjAddr: 0x7120, symBinAddr: 0x10000A9F0, symSize: 0x40 }
  - { offsetInCU: 0x258D6, offset: 0x258D6, size: 0x8, addend: 0x0, symName: __ZNSt3__117__compressed_pairIPNS_4pairIccEENS_9allocatorIS2_EEE6secondB7v160006Ev, symObjAddr: 0x7160, symBinAddr: 0x10000AA30, symSize: 0x24 }
  - { offsetInCU: 0x258FC, offset: 0x258FC, size: 0x8, addend: 0x0, symName: __ZNSt3__122__compressed_pair_elemINS_9allocatorINS_4pairIccEEEELi1ELb1EE5__getB7v160006Ev, symObjAddr: 0x7184, symBinAddr: 0x10000AA54, symSize: 0x14 }
  - { offsetInCU: 0x25922, offset: 0x25922, size: 0x8, addend: 0x0, symName: __ZNKSt3__16vectorINS_4pairIccEENS_9allocatorIS2_EEE9__end_capB7v160006Ev, symObjAddr: 0x7198, symBinAddr: 0x10000AA68, symSize: 0x28 }
  - { offsetInCU: 0x25948, offset: 0x25948, size: 0x8, addend: 0x0, symName: __ZNKSt3__117__compressed_pairIPNS_4pairIccEENS_9allocatorIS2_EEE5firstB7v160006Ev, symObjAddr: 0x71C0, symBinAddr: 0x10000AA90, symSize: 0x24 }
  - { offsetInCU: 0x2596E, offset: 0x2596E, size: 0x8, addend: 0x0, symName: __ZNKSt3__122__compressed_pair_elemIPNS_4pairIccEELi0ELb0EE5__getB7v160006Ev, symObjAddr: 0x71E4, symBinAddr: 0x10000AAB4, symSize: 0x14 }
  - { offsetInCU: 0x25994, offset: 0x25994, size: 0x8, addend: 0x0, symName: __ZNSt3__16vectorINS0_IcNS_9allocatorIcEEEENS1_IS3_EEEC2B7v160006Ev, symObjAddr: 0x71F8, symBinAddr: 0x10000AAC8, symSize: 0x58 }
  - { offsetInCU: 0x259BE, offset: 0x259BE, size: 0x8, addend: 0x0, symName: __ZNSt3__117__compressed_pairIPNS_6vectorIcNS_9allocatorIcEEEENS2_IS4_EEEC1B7v160006IDnNS_18__default_init_tagEEEOT_OT0_, symObjAddr: 0x7250, symBinAddr: 0x10000AB20, symSize: 0x3C }
  - { offsetInCU: 0x25A16, offset: 0x25A16, size: 0x8, addend: 0x0, symName: __ZNSt3__117__compressed_pairIPNS_6vectorIcNS_9allocatorIcEEEENS2_IS4_EEEC2B7v160006IDnNS_18__default_init_tagEEEOT_OT0_, symObjAddr: 0x729C, symBinAddr: 0x10000AB6C, symSize: 0x40 }
  - { offsetInCU: 0x25A6E, offset: 0x25A6E, size: 0x8, addend: 0x0, symName: __ZNSt3__122__compressed_pair_elemIPNS_6vectorIcNS_9allocatorIcEEEELi0ELb0EEC2B7v160006IDnvEEOT_, symObjAddr: 0x72DC, symBinAddr: 0x10000ABAC, symSize: 0x1C }
  - { offsetInCU: 0x25AB0, offset: 0x25AB0, size: 0x8, addend: 0x0, symName: __ZNSt3__122__compressed_pair_elemINS_9allocatorINS_6vectorIcNS1_IcEEEEEELi1ELb1EEC2B7v160006ENS_18__default_init_tagE, symObjAddr: 0x72F8, symBinAddr: 0x10000ABC8, symSize: 0x2C }
  - { offsetInCU: 0x25AE4, offset: 0x25AE4, size: 0x8, addend: 0x0, symName: __ZNSt3__19allocatorINS_6vectorIcNS0_IcEEEEEC2B7v160006Ev, symObjAddr: 0x7324, symBinAddr: 0x10000ABF4, symSize: 0x2C }
  - { offsetInCU: 0x25B0E, offset: 0x25B0E, size: 0x8, addend: 0x0, symName: __ZNSt3__116__non_trivial_ifILb1ENS_9allocatorINS_6vectorIcNS1_IcEEEEEEEC2B7v160006Ev, symObjAddr: 0x7350, symBinAddr: 0x10000AC20, symSize: 0x14 }
  - { offsetInCU: 0x25B38, offset: 0x25B38, size: 0x8, addend: 0x0, symName: __ZNSt3__16vectorINS0_IcNS_9allocatorIcEEEENS1_IS3_EEED2B7v160006Ev, symObjAddr: 0x7364, symBinAddr: 0x10000AC34, symSize: 0x44 }
  - { offsetInCU: 0x25B62, offset: 0x25B62, size: 0x8, addend: 0x0, symName: __ZNSt3__16vectorINS0_IcNS_9allocatorIcEEEENS1_IS3_EEE16__destroy_vectorC1ERS5_, symObjAddr: 0x73A8, symBinAddr: 0x10000AC78, symSize: 0x34 }
  - { offsetInCU: 0x25B9B, offset: 0x25B9B, size: 0x8, addend: 0x0, symName: __ZNSt3__16vectorINS0_IcNS_9allocatorIcEEEENS1_IS3_EEE16__destroy_vectorclB7v160006Ev, symObjAddr: 0x73DC, symBinAddr: 0x10000ACAC, symSize: 0x9C }
  - { offsetInCU: 0x25BC1, offset: 0x25BC1, size: 0x8, addend: 0x0, symName: __ZNSt3__16vectorINS0_IcNS_9allocatorIcEEEENS1_IS3_EEE16__destroy_vectorC2ERS5_, symObjAddr: 0x7478, symBinAddr: 0x10000AD48, symSize: 0x20 }
  - { offsetInCU: 0x25BFA, offset: 0x25BFA, size: 0x8, addend: 0x0, symName: __ZNKSt3__16vectorINS0_IcNS_9allocatorIcEEEENS1_IS3_EEE17__annotate_deleteB7v160006Ev, symObjAddr: 0x7498, symBinAddr: 0x10000AD68, symSize: 0xD4 }
  - { offsetInCU: 0x25C20, offset: 0x25C20, size: 0x8, addend: 0x0, symName: __ZNSt3__16vectorINS0_IcNS_9allocatorIcEEEENS1_IS3_EEE7__clearB7v160006Ev, symObjAddr: 0x757C, symBinAddr: 0x10000AE4C, symSize: 0x28 }
  - { offsetInCU: 0x25C46, offset: 0x25C46, size: 0x8, addend: 0x0, symName: __ZNSt3__116allocator_traitsINS_9allocatorINS_6vectorIcNS1_IcEEEEEEE10deallocateB7v160006ERS5_PS4_m, symObjAddr: 0x75A4, symBinAddr: 0x10000AE74, symSize: 0x34 }
  - { offsetInCU: 0x25C88, offset: 0x25C88, size: 0x8, addend: 0x0, symName: __ZNSt3__16vectorINS0_IcNS_9allocatorIcEEEENS1_IS3_EEE7__allocB7v160006Ev, symObjAddr: 0x75D8, symBinAddr: 0x10000AEA8, symSize: 0x28 }
  - { offsetInCU: 0x25CAE, offset: 0x25CAE, size: 0x8, addend: 0x0, symName: __ZNKSt3__16vectorINS0_IcNS_9allocatorIcEEEENS1_IS3_EEE8capacityB7v160006Ev, symObjAddr: 0x7600, symBinAddr: 0x10000AED0, symSize: 0x40 }
  - { offsetInCU: 0x25CD4, offset: 0x25CD4, size: 0x8, addend: 0x0, symName: __ZNKSt3__16vectorINS0_IcNS_9allocatorIcEEEENS1_IS3_EEE31__annotate_contiguous_containerB7v160006EPKvS7_S7_S7_, symObjAddr: 0x7640, symBinAddr: 0x10000AF10, symSize: 0x20 }
  - { offsetInCU: 0x25D26, offset: 0x25D26, size: 0x8, addend: 0x0, symName: __ZNKSt3__16vectorINS0_IcNS_9allocatorIcEEEENS1_IS3_EEE4dataB7v160006Ev, symObjAddr: 0x7660, symBinAddr: 0x10000AF30, symSize: 0x28 }
  - { offsetInCU: 0x25D4C, offset: 0x25D4C, size: 0x8, addend: 0x0, symName: __ZNKSt3__16vectorINS0_IcNS_9allocatorIcEEEENS1_IS3_EEE4sizeB7v160006Ev, symObjAddr: 0x7688, symBinAddr: 0x10000AF58, symSize: 0x28 }
  - { offsetInCU: 0x25D72, offset: 0x25D72, size: 0x8, addend: 0x0, symName: __ZNSt3__16vectorINS0_IcNS_9allocatorIcEEEENS1_IS3_EEE22__base_destruct_at_endB7v160006EPS3_, symObjAddr: 0x76C4, symBinAddr: 0x10000AF94, symSize: 0x8C }
  - { offsetInCU: 0x25DB6, offset: 0x25DB6, size: 0x8, addend: 0x0, symName: __ZNSt3__116allocator_traitsINS_9allocatorINS_6vectorIcNS1_IcEEEEEEE7destroyB7v160006IS4_vEEvRS5_PT_, symObjAddr: 0x7750, symBinAddr: 0x10000B020, symSize: 0x2C }
  - { offsetInCU: 0x25DF3, offset: 0x25DF3, size: 0x8, addend: 0x0, symName: __ZNSt3__19allocatorINS_6vectorIcNS0_IcEEEEE7destroyB7v160006EPS3_, symObjAddr: 0x777C, symBinAddr: 0x10000B04C, symSize: 0x28 }
  - { offsetInCU: 0x25E27, offset: 0x25E27, size: 0x8, addend: 0x0, symName: __ZNSt3__19allocatorINS_6vectorIcNS0_IcEEEEE10deallocateB7v160006EPS3_m, symObjAddr: 0x77A4, symBinAddr: 0x10000B074, symSize: 0x44 }
  - { offsetInCU: 0x25E69, offset: 0x25E69, size: 0x8, addend: 0x0, symName: __ZNSt3__117__compressed_pairIPNS_6vectorIcNS_9allocatorIcEEEENS2_IS4_EEE6secondB7v160006Ev, symObjAddr: 0x77E8, symBinAddr: 0x10000B0B8, symSize: 0x24 }
  - { offsetInCU: 0x25E8F, offset: 0x25E8F, size: 0x8, addend: 0x0, symName: __ZNSt3__122__compressed_pair_elemINS_9allocatorINS_6vectorIcNS1_IcEEEEEELi1ELb1EE5__getB7v160006Ev, symObjAddr: 0x780C, symBinAddr: 0x10000B0DC, symSize: 0x14 }
  - { offsetInCU: 0x25EB5, offset: 0x25EB5, size: 0x8, addend: 0x0, symName: __ZNKSt3__16vectorINS0_IcNS_9allocatorIcEEEENS1_IS3_EEE9__end_capB7v160006Ev, symObjAddr: 0x7820, symBinAddr: 0x10000B0F0, symSize: 0x28 }
  - { offsetInCU: 0x25EDB, offset: 0x25EDB, size: 0x8, addend: 0x0, symName: __ZNKSt3__117__compressed_pairIPNS_6vectorIcNS_9allocatorIcEEEENS2_IS4_EEE5firstB7v160006Ev, symObjAddr: 0x7848, symBinAddr: 0x10000B118, symSize: 0x24 }
  - { offsetInCU: 0x25F01, offset: 0x25F01, size: 0x8, addend: 0x0, symName: __ZNKSt3__122__compressed_pair_elemIPNS_6vectorIcNS_9allocatorIcEEEELi0ELb0EE5__getB7v160006Ev, symObjAddr: 0x786C, symBinAddr: 0x10000B13C, symSize: 0x14 }
  - { offsetInCU: 0x25FAB, offset: 0x25FAB, size: 0x8, addend: 0x0, symName: __ZNKSt3__113basic_istreamIcNS_11char_traitsIcEEE6sentrycvbB7v160006Ev, symObjAddr: 0x7880, symBinAddr: 0x10000B150, symSize: 0x1C }
  - { offsetInCU: 0x25FD1, offset: 0x25FD1, size: 0x8, addend: 0x0, symName: __ZNSt3__115basic_streambufIcNS_11char_traitsIcEEE6sbumpcB7v160006Ev, symObjAddr: 0x789C, symBinAddr: 0x10000B16C, symSize: 0x78 }
  - { offsetInCU: 0x25FF7, offset: 0x25FF7, size: 0x8, addend: 0x0, symName: __ZNSt3__111char_traitsIcE12to_char_typeEi, symObjAddr: 0x7914, symBinAddr: 0x10000B1E4, symSize: 0x18 }
  - { offsetInCU: 0x2601A, offset: 0x2601A, size: 0x8, addend: 0x0, symName: __ZNSt3__18ios_base18__setstate_nothrowB7v160006Ej, symObjAddr: 0x792C, symBinAddr: 0x10000B1FC, symSize: 0x64 }
  - { offsetInCU: 0x2604F, offset: 0x2604F, size: 0x8, addend: 0x0, symName: __ZNKSt3__19basic_iosIcNS_11char_traitsIcEEE10exceptionsB7v160006Ev, symObjAddr: 0x7990, symBinAddr: 0x10000B260, symSize: 0x24 }
  - { offsetInCU: 0x26075, offset: 0x26075, size: 0x8, addend: 0x0, symName: __ZNSt3__111char_traitsIcE11to_int_typeEc, symObjAddr: 0x79B4, symBinAddr: 0x10000B284, symSize: 0x14 }
  - { offsetInCU: 0x26098, offset: 0x26098, size: 0x8, addend: 0x0, symName: __ZNKSt3__18ios_base10exceptionsB7v160006Ev, symObjAddr: 0x79C8, symBinAddr: 0x10000B298, symSize: 0x18 }
  - { offsetInCU: 0x260C0, offset: 0x260C0, size: 0x8, addend: 0x0, symName: __ZNSt3__16vectorIcNS_9allocatorIcEEEC2B7v160006Ev, symObjAddr: 0x79E0, symBinAddr: 0x10000B2B0, symSize: 0x58 }
  - { offsetInCU: 0x260EA, offset: 0x260EA, size: 0x8, addend: 0x0, symName: __ZNSt3__117__compressed_pairIPcNS_9allocatorIcEEEC1B7v160006IDnNS_18__default_init_tagEEEOT_OT0_, symObjAddr: 0x7A38, symBinAddr: 0x10000B308, symSize: 0x3C }
  - { offsetInCU: 0x26142, offset: 0x26142, size: 0x8, addend: 0x0, symName: __ZNSt3__117__compressed_pairIPcNS_9allocatorIcEEEC2B7v160006IDnNS_18__default_init_tagEEEOT_OT0_, symObjAddr: 0x7A84, symBinAddr: 0x10000B354, symSize: 0x40 }
  - { offsetInCU: 0x2619A, offset: 0x2619A, size: 0x8, addend: 0x0, symName: __ZNSt3__122__compressed_pair_elemIPcLi0ELb0EEC2B7v160006IDnvEEOT_, symObjAddr: 0x7AC4, symBinAddr: 0x10000B394, symSize: 0x1C }
  - { offsetInCU: 0x261DC, offset: 0x261DC, size: 0x8, addend: 0x0, symName: __ZNSt3__16vectorIcNS_9allocatorIcEEED2B7v160006Ev, symObjAddr: 0x7AE0, symBinAddr: 0x10000B3B0, symSize: 0x44 }
  - { offsetInCU: 0x26206, offset: 0x26206, size: 0x8, addend: 0x0, symName: __ZNSt3__16vectorIcNS_9allocatorIcEEE16__destroy_vectorC1ERS3_, symObjAddr: 0x7B24, symBinAddr: 0x10000B3F4, symSize: 0x34 }
  - { offsetInCU: 0x2623F, offset: 0x2623F, size: 0x8, addend: 0x0, symName: __ZNSt3__16vectorIcNS_9allocatorIcEEE16__destroy_vectorclB7v160006Ev, symObjAddr: 0x7B58, symBinAddr: 0x10000B428, symSize: 0x9C }
  - { offsetInCU: 0x26265, offset: 0x26265, size: 0x8, addend: 0x0, symName: __ZNSt3__16vectorIcNS_9allocatorIcEEE16__destroy_vectorC2ERS3_, symObjAddr: 0x7BF4, symBinAddr: 0x10000B4C4, symSize: 0x20 }
  - { offsetInCU: 0x2629E, offset: 0x2629E, size: 0x8, addend: 0x0, symName: __ZNKSt3__16vectorIcNS_9allocatorIcEEE17__annotate_deleteB7v160006Ev, symObjAddr: 0x7C14, symBinAddr: 0x10000B4E4, symSize: 0xB8 }
  - { offsetInCU: 0x262C4, offset: 0x262C4, size: 0x8, addend: 0x0, symName: __ZNSt3__16vectorIcNS_9allocatorIcEEE7__clearB7v160006Ev, symObjAddr: 0x7CDC, symBinAddr: 0x10000B5AC, symSize: 0x28 }
  - { offsetInCU: 0x262EA, offset: 0x262EA, size: 0x8, addend: 0x0, symName: __ZNSt3__116allocator_traitsINS_9allocatorIcEEE10deallocateB7v160006ERS2_Pcm, symObjAddr: 0x7D04, symBinAddr: 0x10000B5D4, symSize: 0x34 }
  - { offsetInCU: 0x2632C, offset: 0x2632C, size: 0x8, addend: 0x0, symName: __ZNSt3__16vectorIcNS_9allocatorIcEEE7__allocB7v160006Ev, symObjAddr: 0x7D38, symBinAddr: 0x10000B608, symSize: 0x28 }
  - { offsetInCU: 0x26352, offset: 0x26352, size: 0x8, addend: 0x0, symName: __ZNKSt3__16vectorIcNS_9allocatorIcEEE8capacityB7v160006Ev, symObjAddr: 0x7D60, symBinAddr: 0x10000B630, symSize: 0x38 }
  - { offsetInCU: 0x26378, offset: 0x26378, size: 0x8, addend: 0x0, symName: __ZNKSt3__16vectorIcNS_9allocatorIcEEE31__annotate_contiguous_containerB7v160006EPKvS5_S5_S5_, symObjAddr: 0x7D98, symBinAddr: 0x10000B668, symSize: 0x20 }
  - { offsetInCU: 0x263CA, offset: 0x263CA, size: 0x8, addend: 0x0, symName: __ZNKSt3__16vectorIcNS_9allocatorIcEEE4dataB7v160006Ev, symObjAddr: 0x7DB8, symBinAddr: 0x10000B688, symSize: 0x28 }
  - { offsetInCU: 0x263F0, offset: 0x263F0, size: 0x8, addend: 0x0, symName: __ZNSt3__16vectorIcNS_9allocatorIcEEE22__base_destruct_at_endB7v160006EPc, symObjAddr: 0x7DF4, symBinAddr: 0x10000B6C4, symSize: 0x8C }
  - { offsetInCU: 0x26434, offset: 0x26434, size: 0x8, addend: 0x0, symName: __ZNSt3__116allocator_traitsINS_9allocatorIcEEE7destroyB7v160006IcvEEvRS2_PT_, symObjAddr: 0x7E80, symBinAddr: 0x10000B750, symSize: 0x2C }
  - { offsetInCU: 0x26471, offset: 0x26471, size: 0x8, addend: 0x0, symName: __ZNSt3__19allocatorIcE7destroyB7v160006EPc, symObjAddr: 0x7EAC, symBinAddr: 0x10000B77C, symSize: 0x14 }
  - { offsetInCU: 0x264A5, offset: 0x264A5, size: 0x8, addend: 0x0, symName: __ZNSt3__19allocatorIcE10deallocateB7v160006EPcm, symObjAddr: 0x7EC0, symBinAddr: 0x10000B790, symSize: 0x40 }
  - { offsetInCU: 0x264E7, offset: 0x264E7, size: 0x8, addend: 0x0, symName: __ZNSt3__117__compressed_pairIPcNS_9allocatorIcEEE6secondB7v160006Ev, symObjAddr: 0x7F00, symBinAddr: 0x10000B7D0, symSize: 0x24 }
  - { offsetInCU: 0x2650D, offset: 0x2650D, size: 0x8, addend: 0x0, symName: __ZNSt3__122__compressed_pair_elemINS_9allocatorIcEELi1ELb1EE5__getB7v160006Ev, symObjAddr: 0x7F24, symBinAddr: 0x10000B7F4, symSize: 0x14 }
  - { offsetInCU: 0x26533, offset: 0x26533, size: 0x8, addend: 0x0, symName: __ZNKSt3__16vectorIcNS_9allocatorIcEEE9__end_capB7v160006Ev, symObjAddr: 0x7F38, symBinAddr: 0x10000B808, symSize: 0x28 }
  - { offsetInCU: 0x26559, offset: 0x26559, size: 0x8, addend: 0x0, symName: __ZNKSt3__117__compressed_pairIPcNS_9allocatorIcEEE5firstB7v160006Ev, symObjAddr: 0x7F60, symBinAddr: 0x10000B830, symSize: 0x24 }
  - { offsetInCU: 0x2657F, offset: 0x2657F, size: 0x8, addend: 0x0, symName: __ZNKSt3__122__compressed_pair_elemIPcLi0ELb0EE5__getB7v160006Ev, symObjAddr: 0x7F84, symBinAddr: 0x10000B854, symSize: 0x14 }
  - { offsetInCU: 0x265A5, offset: 0x265A5, size: 0x8, addend: 0x0, symName: __ZNKSt3__19basic_iosIcNS_11char_traitsIcEEE4failB7v160006Ev, symObjAddr: 0x7F98, symBinAddr: 0x10000B868, symSize: 0x28 }
  - { offsetInCU: 0x265CB, offset: 0x265CB, size: 0x8, addend: 0x0, symName: __ZNKSt3__18ios_base4failB7v160006Ev, symObjAddr: 0x7FC0, symBinAddr: 0x10000B890, symSize: 0x28 }
  - { offsetInCU: 0x265F3, offset: 0x265F3, size: 0x8, addend: 0x0, symName: __ZNSt3__16vectorIcNS_9allocatorIcEEE9__end_capB7v160006Ev, symObjAddr: 0x7FE8, symBinAddr: 0x10000B8B8, symSize: 0x28 }
  - { offsetInCU: 0x26619, offset: 0x26619, size: 0x8, addend: 0x0, symName: __ZNSt3__16vectorIcNS_9allocatorIcEEE22__construct_one_at_endB7v160006IJRKcEEEvDpOT_, symObjAddr: 0x8010, symBinAddr: 0x10000B8E0, symSize: 0x90 }
  - { offsetInCU: 0x26668, offset: 0x26668, size: 0x8, addend: 0x0, symName: __ZNSt3__16vectorIcNS_9allocatorIcEEE21__push_back_slow_pathIRKcEEvOT_, symObjAddr: 0x80A0, symBinAddr: 0x10000B970, symSize: 0xD8 }
  - { offsetInCU: 0x266C6, offset: 0x266C6, size: 0x8, addend: 0x0, symName: __ZNSt3__117__compressed_pairIPcNS_9allocatorIcEEE5firstB7v160006Ev, symObjAddr: 0x8178, symBinAddr: 0x10000BA48, symSize: 0x24 }
  - { offsetInCU: 0x266EC, offset: 0x266EC, size: 0x8, addend: 0x0, symName: __ZNSt3__122__compressed_pair_elemIPcLi0ELb0EE5__getB7v160006Ev, symObjAddr: 0x819C, symBinAddr: 0x10000BA6C, symSize: 0x14 }
  - { offsetInCU: 0x2672B, offset: 0x2672B, size: 0x8, addend: 0x0, symName: __ZNSt3__16vectorIcNS_9allocatorIcEEE21_ConstructTransactionC1B7v160006ERS3_m, symObjAddr: 0x81B0, symBinAddr: 0x10000BA80, symSize: 0x3C }
  - { offsetInCU: 0x26773, offset: 0x26773, size: 0x8, addend: 0x0, symName: __ZNSt3__116allocator_traitsINS_9allocatorIcEEE9constructB7v160006IcJRKcEvEEvRS2_PT_DpOT0_, symObjAddr: 0x81EC, symBinAddr: 0x10000BABC, symSize: 0x34 }
  - { offsetInCU: 0x267CA, offset: 0x267CA, size: 0x8, addend: 0x0, symName: __ZNSt3__16vectorIcNS_9allocatorIcEEE21_ConstructTransactionD1B7v160006Ev, symObjAddr: 0x8220, symBinAddr: 0x10000BAF0, symSize: 0x2C }
  - { offsetInCU: 0x267F4, offset: 0x267F4, size: 0x8, addend: 0x0, symName: __ZNSt3__16vectorIcNS_9allocatorIcEEE21_ConstructTransactionC2B7v160006ERS3_m, symObjAddr: 0x824C, symBinAddr: 0x10000BB1C, symSize: 0x44 }
  - { offsetInCU: 0x2683C, offset: 0x2683C, size: 0x8, addend: 0x0, symName: __ZNSt3__19allocatorIcE9constructB7v160006IcJRKcEEEvPT_DpOT0_, symObjAddr: 0x8290, symBinAddr: 0x10000BB60, symSize: 0x28 }
  - { offsetInCU: 0x26892, offset: 0x26892, size: 0x8, addend: 0x0, symName: __ZNSt3__16vectorIcNS_9allocatorIcEEE21_ConstructTransactionD2B7v160006Ev, symObjAddr: 0x82B8, symBinAddr: 0x10000BB88, symSize: 0x20 }
  - { offsetInCU: 0x268BC, offset: 0x268BC, size: 0x8, addend: 0x0, symName: __ZNKSt3__16vectorIcNS_9allocatorIcEEE11__recommendB7v160006Em, symObjAddr: 0x82D8, symBinAddr: 0x10000BBA8, symSize: 0xB4 }
  - { offsetInCU: 0x26911, offset: 0x26911, size: 0x8, addend: 0x0, symName: __ZNSt3__114__split_bufferIcRNS_9allocatorIcEEEC1EmmS3_, symObjAddr: 0x838C, symBinAddr: 0x10000BC5C, symSize: 0x44 }
  - { offsetInCU: 0x26967, offset: 0x26967, size: 0x8, addend: 0x0, symName: __ZNSt3__114__split_bufferIcRNS_9allocatorIcEEED1Ev, symObjAddr: 0x84E8, symBinAddr: 0x10000BDB8, symSize: 0x2C }
  - { offsetInCU: 0x26993, offset: 0x26993, size: 0x8, addend: 0x0, symName: __ZNKSt3__16vectorIcNS_9allocatorIcEEE8max_sizeEv, symObjAddr: 0x8514, symBinAddr: 0x10000BDE4, symSize: 0x60 }
  - { offsetInCU: 0x269BB, offset: 0x269BB, size: 0x8, addend: 0x0, symName: __ZNKSt3__16vectorIcNS_9allocatorIcEEE20__throw_length_errorB7v160006Ev, symObjAddr: 0x8574, symBinAddr: 0x10000BE44, symSize: 0x1C }
  - { offsetInCU: 0x269EB, offset: 0x269EB, size: 0x8, addend: 0x0, symName: __ZNSt3__116allocator_traitsINS_9allocatorIcEEE8max_sizeB7v160006IS2_vEEmRKS2_, symObjAddr: 0x85E8, symBinAddr: 0x10000BEB8, symSize: 0x24 }
  - { offsetInCU: 0x26A19, offset: 0x26A19, size: 0x8, addend: 0x0, symName: __ZNKSt3__16vectorIcNS_9allocatorIcEEE7__allocB7v160006Ev, symObjAddr: 0x860C, symBinAddr: 0x10000BEDC, symSize: 0x28 }
  - { offsetInCU: 0x26A3F, offset: 0x26A3F, size: 0x8, addend: 0x0, symName: __ZNSt3__114numeric_limitsIlE3maxB7v160006Ev, symObjAddr: 0x8634, symBinAddr: 0x10000BF04, symSize: 0x14 }
  - { offsetInCU: 0x26A5D, offset: 0x26A5D, size: 0x8, addend: 0x0, symName: __ZNKSt3__16__lessImmEclB7v160006ERKmS3_, symObjAddr: 0x869C, symBinAddr: 0x10000BF6C, symSize: 0x34 }
  - { offsetInCU: 0x26A9F, offset: 0x26A9F, size: 0x8, addend: 0x0, symName: __ZNKSt3__19allocatorIcE8max_sizeB7v160006Ev, symObjAddr: 0x86D0, symBinAddr: 0x10000BFA0, symSize: 0x14 }
  - { offsetInCU: 0x26AC5, offset: 0x26AC5, size: 0x8, addend: 0x0, symName: __ZNKSt3__117__compressed_pairIPcNS_9allocatorIcEEE6secondB7v160006Ev, symObjAddr: 0x86E4, symBinAddr: 0x10000BFB4, symSize: 0x24 }
  - { offsetInCU: 0x26AEB, offset: 0x26AEB, size: 0x8, addend: 0x0, symName: __ZNKSt3__122__compressed_pair_elemINS_9allocatorIcEELi1ELb1EE5__getB7v160006Ev, symObjAddr: 0x8708, symBinAddr: 0x10000BFD8, symSize: 0x14 }
  - { offsetInCU: 0x26B11, offset: 0x26B11, size: 0x8, addend: 0x0, symName: __ZNSt3__123__libcpp_numeric_limitsIlLb1EE3maxB7v160006Ev, symObjAddr: 0x871C, symBinAddr: 0x10000BFEC, symSize: 0x8 }
  - { offsetInCU: 0x26B25, offset: 0x26B25, size: 0x8, addend: 0x0, symName: __ZNSt12length_errorC1B7v160006EPKc, symObjAddr: 0x8788, symBinAddr: 0x10000C058, symSize: 0x34 }
  - { offsetInCU: 0x26B5D, offset: 0x26B5D, size: 0x8, addend: 0x0, symName: __ZNSt12length_errorC2B7v160006EPKc, symObjAddr: 0x87BC, symBinAddr: 0x10000C08C, symSize: 0x4C }
  - { offsetInCU: 0x26B95, offset: 0x26B95, size: 0x8, addend: 0x0, symName: __ZNSt3__114__split_bufferIcRNS_9allocatorIcEEEC2EmmS3_, symObjAddr: 0x885C, symBinAddr: 0x10000C12C, symSize: 0xD4 }
  - { offsetInCU: 0x26C08, offset: 0x26C08, size: 0x8, addend: 0x0, symName: __ZNSt3__117__compressed_pairIPcRNS_9allocatorIcEEEC1B7v160006IDnS4_EEOT_OT0_, symObjAddr: 0x8930, symBinAddr: 0x10000C200, symSize: 0x3C }
  - { offsetInCU: 0x26C60, offset: 0x26C60, size: 0x8, addend: 0x0, symName: __ZNSt3__114__split_bufferIcRNS_9allocatorIcEEE7__allocB7v160006Ev, symObjAddr: 0x89AC, symBinAddr: 0x10000C27C, symSize: 0x28 }
  - { offsetInCU: 0x26C86, offset: 0x26C86, size: 0x8, addend: 0x0, symName: __ZNSt3__114__split_bufferIcRNS_9allocatorIcEEE9__end_capB7v160006Ev, symObjAddr: 0x89D4, symBinAddr: 0x10000C2A4, symSize: 0x28 }
  - { offsetInCU: 0x26CAC, offset: 0x26CAC, size: 0x8, addend: 0x0, symName: __ZNSt3__117__compressed_pairIPcRNS_9allocatorIcEEEC2B7v160006IDnS4_EEOT_OT0_, symObjAddr: 0x89FC, symBinAddr: 0x10000C2CC, symSize: 0x48 }
  - { offsetInCU: 0x26D04, offset: 0x26D04, size: 0x8, addend: 0x0, symName: __ZNSt3__122__compressed_pair_elemIRNS_9allocatorIcEELi1ELb0EEC2B7v160006IS3_vEEOT_, symObjAddr: 0x8A44, symBinAddr: 0x10000C314, symSize: 0x20 }
  - { offsetInCU: 0x26D46, offset: 0x26D46, size: 0x8, addend: 0x0, symName: __ZNSt3__19allocatorIcE8allocateB7v160006Em, symObjAddr: 0x8A64, symBinAddr: 0x10000C334, symSize: 0x58 }
  - { offsetInCU: 0x26D7A, offset: 0x26D7A, size: 0x8, addend: 0x0, symName: __ZNSt3__117__compressed_pairIPcRNS_9allocatorIcEEE6secondB7v160006Ev, symObjAddr: 0x8ABC, symBinAddr: 0x10000C38C, symSize: 0x28 }
  - { offsetInCU: 0x26DA0, offset: 0x26DA0, size: 0x8, addend: 0x0, symName: __ZNSt3__122__compressed_pair_elemIRNS_9allocatorIcEELi1ELb0EE5__getB7v160006Ev, symObjAddr: 0x8AE4, symBinAddr: 0x10000C3B4, symSize: 0x18 }
  - { offsetInCU: 0x26DC6, offset: 0x26DC6, size: 0x8, addend: 0x0, symName: __ZNSt3__117__compressed_pairIPcRNS_9allocatorIcEEE5firstB7v160006Ev, symObjAddr: 0x8AFC, symBinAddr: 0x10000C3CC, symSize: 0x24 }
  - { offsetInCU: 0x26DEC, offset: 0x26DEC, size: 0x8, addend: 0x0, symName: __ZNSt3__116reverse_iteratorIPcEC1B7v160006ES1_, symObjAddr: 0x8B98, symBinAddr: 0x10000C468, symSize: 0x34 }
  - { offsetInCU: 0x26E24, offset: 0x26E24, size: 0x8, addend: 0x0, symName: __ZNKSt3__116reverse_iteratorIPcE4baseB7v160006Ev, symObjAddr: 0x8BCC, symBinAddr: 0x10000C49C, symSize: 0x18 }
  - { offsetInCU: 0x26E4A, offset: 0x26E4A, size: 0x8, addend: 0x0, symName: __ZNKSt3__16vectorIcNS_9allocatorIcEEE14__annotate_newB7v160006Em, symObjAddr: 0x8C20, symBinAddr: 0x10000C4F0, symSize: 0xAC }
  - { offsetInCU: 0x26EA2, offset: 0x26EA2, size: 0x8, addend: 0x0, symName: __ZNKSt3__111__move_loopINS_17_ClassicAlgPolicyEEclB7v160006INS_16reverse_iteratorIPcEES6_S6_EENS_4pairIT_T1_EES8_T0_S9_, symObjAddr: 0x8FCC, symBinAddr: 0x10000C89C, symSize: 0xA0 }
  - { offsetInCU: 0x26F12, offset: 0x26F12, size: 0x8, addend: 0x0, symName: __ZNSt3__18_IterOpsINS_17_ClassicAlgPolicyEE11__iter_moveB7v160006IRNS_16reverse_iteratorIPcEEEENS_9enable_ifIXsr12is_referenceIDTdeclsr3stdE7declvalIRT_EEEEE5valueEDTclsr3stdE4movedeclsr3stdE7declvalISA_EEEEE4typeEOS9_, symObjAddr: 0x9200, symBinAddr: 0x10000CAD0, symSize: 0x28 }
  - { offsetInCU: 0x26F3E, offset: 0x26F3E, size: 0x8, addend: 0x0, symName: __ZNKSt3__116reverse_iteratorIPcEdeB7v160006Ev, symObjAddr: 0x9228, symBinAddr: 0x10000CAF8, symSize: 0x28 }
  - { offsetInCU: 0x26F72, offset: 0x26F72, size: 0x8, addend: 0x0, symName: __ZNSt3__116reverse_iteratorIPcEppB7v160006Ev, symObjAddr: 0x9250, symBinAddr: 0x10000CB20, symSize: 0x20 }
  - { offsetInCU: 0x26F98, offset: 0x26F98, size: 0x8, addend: 0x0, symName: __ZNSt3__18_IterOpsINS_17_ClassicAlgPolicyEE25__validate_iter_referenceB7v160006IRNS_16reverse_iteratorIPcEEEEvv, symObjAddr: 0x9270, symBinAddr: 0x10000CB40, symSize: 0x4 }
  - { offsetInCU: 0x26FB6, offset: 0x26FB6, size: 0x8, addend: 0x0, symName: __ZNSt3__118__unwrap_iter_implINS_16reverse_iteratorIPcEELb0EE8__unwrapB7v160006ES3_, symObjAddr: 0x9274, symBinAddr: 0x10000CB44, symSize: 0x24 }
  - { offsetInCU: 0x26FDE, offset: 0x26FDE, size: 0x8, addend: 0x0, symName: __ZNSt3__14pairINS_16reverse_iteratorIPcEES3_EC1B7v160006IS3_S3_LPv0EEEOT_OT0_, symObjAddr: 0x9298, symBinAddr: 0x10000CB68, symSize: 0x3C }
  - { offsetInCU: 0x2703C, offset: 0x2703C, size: 0x8, addend: 0x0, symName: __ZNSt3__14pairINS_16reverse_iteratorIPcEES3_EC2B7v160006IS3_S3_LPv0EEEOT_OT0_, symObjAddr: 0x92D4, symBinAddr: 0x10000CBA4, symSize: 0x34 }
  - { offsetInCU: 0x2709A, offset: 0x2709A, size: 0x8, addend: 0x0, symName: __ZNSt3__118__unwrap_iter_implINS_16reverse_iteratorIPcEELb0EE8__rewrapB7v160006ES3_S3_, symObjAddr: 0x9308, symBinAddr: 0x10000CBD8, symSize: 0x2C }
  - { offsetInCU: 0x270C7, offset: 0x270C7, size: 0x8, addend: 0x0, symName: __ZNSt3__116reverse_iteratorIPcEC2B7v160006ES1_, symObjAddr: 0x9334, symBinAddr: 0x10000CC04, symSize: 0x28 }
  - { offsetInCU: 0x270FF, offset: 0x270FF, size: 0x8, addend: 0x0, symName: __ZNSt3__114__split_bufferIcRNS_9allocatorIcEEED2Ev, symObjAddr: 0x935C, symBinAddr: 0x10000CC2C, symSize: 0x8C }
  - { offsetInCU: 0x2712B, offset: 0x2712B, size: 0x8, addend: 0x0, symName: __ZNSt3__114__split_bufferIcRNS_9allocatorIcEEE5clearB7v160006Ev, symObjAddr: 0x93E8, symBinAddr: 0x10000CCB8, symSize: 0x28 }
  - { offsetInCU: 0x27151, offset: 0x27151, size: 0x8, addend: 0x0, symName: __ZNKSt3__114__split_bufferIcRNS_9allocatorIcEEE8capacityB7v160006Ev, symObjAddr: 0x9410, symBinAddr: 0x10000CCE0, symSize: 0x38 }
  - { offsetInCU: 0x27177, offset: 0x27177, size: 0x8, addend: 0x0, symName: __ZNSt3__114__split_bufferIcRNS_9allocatorIcEEE17__destruct_at_endB7v160006EPc, symObjAddr: 0x9448, symBinAddr: 0x10000CD18, symSize: 0x2C }
  - { offsetInCU: 0x271AB, offset: 0x271AB, size: 0x8, addend: 0x0, symName: __ZNSt3__114__split_bufferIcRNS_9allocatorIcEEE17__destruct_at_endB7v160006EPcNS_17integral_constantIbLb0EEE, symObjAddr: 0x9474, symBinAddr: 0x10000CD44, symSize: 0x80 }
  - { offsetInCU: 0x271EB, offset: 0x271EB, size: 0x8, addend: 0x0, symName: __ZNKSt3__114__split_bufferIcRNS_9allocatorIcEEE9__end_capB7v160006Ev, symObjAddr: 0x94F4, symBinAddr: 0x10000CDC4, symSize: 0x28 }
  - { offsetInCU: 0x27211, offset: 0x27211, size: 0x8, addend: 0x0, symName: __ZNKSt3__117__compressed_pairIPcRNS_9allocatorIcEEE5firstB7v160006Ev, symObjAddr: 0x951C, symBinAddr: 0x10000CDEC, symSize: 0x24 }
  - { offsetInCU: 0x27237, offset: 0x27237, size: 0x8, addend: 0x0, symName: __ZNSt3__16vectorINS0_IcNS_9allocatorIcEEEENS1_IS3_EEE9__end_capB7v160006Ev, symObjAddr: 0x9540, symBinAddr: 0x10000CE10, symSize: 0x28 }
  - { offsetInCU: 0x2725D, offset: 0x2725D, size: 0x8, addend: 0x0, symName: __ZNSt3__16vectorINS0_IcNS_9allocatorIcEEEENS1_IS3_EEE22__construct_one_at_endB7v160006IJRKS3_EEEvDpOT_, symObjAddr: 0x9568, symBinAddr: 0x10000CE38, symSize: 0x90 }
  - { offsetInCU: 0x272AC, offset: 0x272AC, size: 0x8, addend: 0x0, symName: __ZNSt3__16vectorINS0_IcNS_9allocatorIcEEEENS1_IS3_EEE21__push_back_slow_pathIRKS3_EEvOT_, symObjAddr: 0x95F8, symBinAddr: 0x10000CEC8, symSize: 0xD8 }
  - { offsetInCU: 0x2730A, offset: 0x2730A, size: 0x8, addend: 0x0, symName: __ZNSt3__117__compressed_pairIPNS_6vectorIcNS_9allocatorIcEEEENS2_IS4_EEE5firstB7v160006Ev, symObjAddr: 0x96D0, symBinAddr: 0x10000CFA0, symSize: 0x24 }
  - { offsetInCU: 0x27330, offset: 0x27330, size: 0x8, addend: 0x0, symName: __ZNSt3__122__compressed_pair_elemIPNS_6vectorIcNS_9allocatorIcEEEELi0ELb0EE5__getB7v160006Ev, symObjAddr: 0x96F4, symBinAddr: 0x10000CFC4, symSize: 0x14 }
  - { offsetInCU: 0x2736F, offset: 0x2736F, size: 0x8, addend: 0x0, symName: __ZNSt3__16vectorINS0_IcNS_9allocatorIcEEEENS1_IS3_EEE21_ConstructTransactionC1B7v160006ERS5_m, symObjAddr: 0x9708, symBinAddr: 0x10000CFD8, symSize: 0x3C }
  - { offsetInCU: 0x273B7, offset: 0x273B7, size: 0x8, addend: 0x0, symName: __ZNSt3__116allocator_traitsINS_9allocatorINS_6vectorIcNS1_IcEEEEEEE9constructB7v160006IS4_JRKS4_EvEEvRS5_PT_DpOT0_, symObjAddr: 0x9744, symBinAddr: 0x10000D014, symSize: 0x34 }
  - { offsetInCU: 0x2740E, offset: 0x2740E, size: 0x8, addend: 0x0, symName: __ZNSt3__16vectorINS0_IcNS_9allocatorIcEEEENS1_IS3_EEE21_ConstructTransactionD1B7v160006Ev, symObjAddr: 0x9778, symBinAddr: 0x10000D048, symSize: 0x2C }
  - { offsetInCU: 0x27438, offset: 0x27438, size: 0x8, addend: 0x0, symName: __ZNSt3__16vectorINS0_IcNS_9allocatorIcEEEENS1_IS3_EEE21_ConstructTransactionC2B7v160006ERS5_m, symObjAddr: 0x97A4, symBinAddr: 0x10000D074, symSize: 0x4C }
  - { offsetInCU: 0x27480, offset: 0x27480, size: 0x8, addend: 0x0, symName: __ZNSt3__19allocatorINS_6vectorIcNS0_IcEEEEE9constructB7v160006IS3_JRKS3_EEEvPT_DpOT0_, symObjAddr: 0x97F0, symBinAddr: 0x10000D0C0, symSize: 0x30 }
  - { offsetInCU: 0x274D6, offset: 0x274D6, size: 0x8, addend: 0x0, symName: __ZNSt3__16vectorINS0_IcNS_9allocatorIcEEEENS1_IS3_EEE21_ConstructTransactionD2B7v160006Ev, symObjAddr: 0x9820, symBinAddr: 0x10000D0F0, symSize: 0x20 }
  - { offsetInCU: 0x27500, offset: 0x27500, size: 0x8, addend: 0x0, symName: __ZNKSt3__16vectorINS0_IcNS_9allocatorIcEEEENS1_IS3_EEE11__recommendB7v160006Em, symObjAddr: 0x9840, symBinAddr: 0x10000D110, symSize: 0xB4 }
  - { offsetInCU: 0x27555, offset: 0x27555, size: 0x8, addend: 0x0, symName: __ZNSt3__114__split_bufferINS_6vectorIcNS_9allocatorIcEEEERNS2_IS4_EEEC1EmmS6_, symObjAddr: 0x98F4, symBinAddr: 0x10000D1C4, symSize: 0x44 }
  - { offsetInCU: 0x275AB, offset: 0x275AB, size: 0x8, addend: 0x0, symName: __ZNSt3__114__split_bufferINS_6vectorIcNS_9allocatorIcEEEERNS2_IS4_EEED1Ev, symObjAddr: 0x9A50, symBinAddr: 0x10000D320, symSize: 0x2C }
  - { offsetInCU: 0x275D7, offset: 0x275D7, size: 0x8, addend: 0x0, symName: __ZNKSt3__16vectorINS0_IcNS_9allocatorIcEEEENS1_IS3_EEE8max_sizeEv, symObjAddr: 0x9A7C, symBinAddr: 0x10000D34C, symSize: 0x60 }
  - { offsetInCU: 0x275FF, offset: 0x275FF, size: 0x8, addend: 0x0, symName: __ZNKSt3__16vectorINS0_IcNS_9allocatorIcEEEENS1_IS3_EEE20__throw_length_errorB7v160006Ev, symObjAddr: 0x9ADC, symBinAddr: 0x10000D3AC, symSize: 0x1C }
  - { offsetInCU: 0x2762F, offset: 0x2762F, size: 0x8, addend: 0x0, symName: __ZNSt3__116allocator_traitsINS_9allocatorINS_6vectorIcNS1_IcEEEEEEE8max_sizeB7v160006IS5_vEEmRKS5_, symObjAddr: 0x9AF8, symBinAddr: 0x10000D3C8, symSize: 0x24 }
  - { offsetInCU: 0x2765D, offset: 0x2765D, size: 0x8, addend: 0x0, symName: __ZNKSt3__16vectorINS0_IcNS_9allocatorIcEEEENS1_IS3_EEE7__allocB7v160006Ev, symObjAddr: 0x9B1C, symBinAddr: 0x10000D3EC, symSize: 0x28 }
  - { offsetInCU: 0x27683, offset: 0x27683, size: 0x8, addend: 0x0, symName: __ZNKSt3__19allocatorINS_6vectorIcNS0_IcEEEEE8max_sizeB7v160006Ev, symObjAddr: 0x9B44, symBinAddr: 0x10000D414, symSize: 0x18 }
  - { offsetInCU: 0x276A9, offset: 0x276A9, size: 0x8, addend: 0x0, symName: __ZNKSt3__117__compressed_pairIPNS_6vectorIcNS_9allocatorIcEEEENS2_IS4_EEE6secondB7v160006Ev, symObjAddr: 0x9B5C, symBinAddr: 0x10000D42C, symSize: 0x24 }
  - { offsetInCU: 0x276CF, offset: 0x276CF, size: 0x8, addend: 0x0, symName: __ZNKSt3__122__compressed_pair_elemINS_9allocatorINS_6vectorIcNS1_IcEEEEEELi1ELb1EE5__getB7v160006Ev, symObjAddr: 0x9B80, symBinAddr: 0x10000D450, symSize: 0x14 }
  - { offsetInCU: 0x276F5, offset: 0x276F5, size: 0x8, addend: 0x0, symName: __ZNSt3__114__split_bufferINS_6vectorIcNS_9allocatorIcEEEERNS2_IS4_EEEC2EmmS6_, symObjAddr: 0x9B94, symBinAddr: 0x10000D464, symSize: 0xE0 }
  - { offsetInCU: 0x27768, offset: 0x27768, size: 0x8, addend: 0x0, symName: __ZNSt3__117__compressed_pairIPNS_6vectorIcNS_9allocatorIcEEEERNS2_IS4_EEEC1B7v160006IDnS7_EEOT_OT0_, symObjAddr: 0x9C74, symBinAddr: 0x10000D544, symSize: 0x3C }
  - { offsetInCU: 0x277C0, offset: 0x277C0, size: 0x8, addend: 0x0, symName: __ZNSt3__114__split_bufferINS_6vectorIcNS_9allocatorIcEEEERNS2_IS4_EEE7__allocB7v160006Ev, symObjAddr: 0x9CF0, symBinAddr: 0x10000D5C0, symSize: 0x28 }
  - { offsetInCU: 0x277E6, offset: 0x277E6, size: 0x8, addend: 0x0, symName: __ZNSt3__114__split_bufferINS_6vectorIcNS_9allocatorIcEEEERNS2_IS4_EEE9__end_capB7v160006Ev, symObjAddr: 0x9D18, symBinAddr: 0x10000D5E8, symSize: 0x28 }
  - { offsetInCU: 0x2780C, offset: 0x2780C, size: 0x8, addend: 0x0, symName: __ZNSt3__117__compressed_pairIPNS_6vectorIcNS_9allocatorIcEEEERNS2_IS4_EEEC2B7v160006IDnS7_EEOT_OT0_, symObjAddr: 0x9D40, symBinAddr: 0x10000D610, symSize: 0x48 }
  - { offsetInCU: 0x27864, offset: 0x27864, size: 0x8, addend: 0x0, symName: __ZNSt3__122__compressed_pair_elemIRNS_9allocatorINS_6vectorIcNS1_IcEEEEEELi1ELb0EEC2B7v160006IS6_vEEOT_, symObjAddr: 0x9D88, symBinAddr: 0x10000D658, symSize: 0x20 }
  - { offsetInCU: 0x278A6, offset: 0x278A6, size: 0x8, addend: 0x0, symName: __ZNSt3__19allocatorINS_6vectorIcNS0_IcEEEEE8allocateB7v160006Em, symObjAddr: 0x9DA8, symBinAddr: 0x10000D678, symSize: 0x5C }
  - { offsetInCU: 0x278DA, offset: 0x278DA, size: 0x8, addend: 0x0, symName: __ZNSt3__117__compressed_pairIPNS_6vectorIcNS_9allocatorIcEEEERNS2_IS4_EEE6secondB7v160006Ev, symObjAddr: 0x9E04, symBinAddr: 0x10000D6D4, symSize: 0x28 }
  - { offsetInCU: 0x27900, offset: 0x27900, size: 0x8, addend: 0x0, symName: __ZNSt3__122__compressed_pair_elemIRNS_9allocatorINS_6vectorIcNS1_IcEEEEEELi1ELb0EE5__getB7v160006Ev, symObjAddr: 0x9E2C, symBinAddr: 0x10000D6FC, symSize: 0x18 }
  - { offsetInCU: 0x27926, offset: 0x27926, size: 0x8, addend: 0x0, symName: __ZNSt3__117__compressed_pairIPNS_6vectorIcNS_9allocatorIcEEEERNS2_IS4_EEE5firstB7v160006Ev, symObjAddr: 0x9E44, symBinAddr: 0x10000D714, symSize: 0x24 }
  - { offsetInCU: 0x2794C, offset: 0x2794C, size: 0x8, addend: 0x0, symName: __ZNSt3__116reverse_iteratorIPNS_6vectorIcNS_9allocatorIcEEEEEC1B7v160006ES5_, symObjAddr: 0x9F94, symBinAddr: 0x10000D864, symSize: 0x34 }
  - { offsetInCU: 0x27984, offset: 0x27984, size: 0x8, addend: 0x0, symName: __ZNKSt3__116reverse_iteratorIPNS_6vectorIcNS_9allocatorIcEEEEE4baseB7v160006Ev, symObjAddr: 0x9FC8, symBinAddr: 0x10000D898, symSize: 0x18 }
  - { offsetInCU: 0x279AA, offset: 0x279AA, size: 0x8, addend: 0x0, symName: __ZNKSt3__16vectorINS0_IcNS_9allocatorIcEEEENS1_IS3_EEE14__annotate_newB7v160006Em, symObjAddr: 0xA01C, symBinAddr: 0x10000D8EC, symSize: 0xC8 }
  - { offsetInCU: 0x279DF, offset: 0x279DF, size: 0x8, addend: 0x0, symName: __ZNSt3__129_AllocatorDestroyRangeReverseINS_9allocatorINS_6vectorIcNS1_IcEEEEEENS_16reverse_iteratorIPS4_EEEC1B7v160006ERS5_RS8_SB_, symObjAddr: 0xA140, symBinAddr: 0x10000DA10, symSize: 0x44 }
  - { offsetInCU: 0x27A36, offset: 0x27A36, size: 0x8, addend: 0x0, symName: __ZNSt3__116allocator_traitsINS_9allocatorINS_6vectorIcNS1_IcEEEEEEE9constructB7v160006IS4_JS4_EvEEvRS5_PT_DpOT0_, symObjAddr: 0xA1CC, symBinAddr: 0x10000DA9C, symSize: 0x34 }
  - { offsetInCU: 0x27A8D, offset: 0x27A8D, size: 0x8, addend: 0x0, symName: __ZNKSt3__116reverse_iteratorIPNS_6vectorIcNS_9allocatorIcEEEEEdeB7v160006Ev, symObjAddr: 0xA224, symBinAddr: 0x10000DAF4, symSize: 0x28 }
  - { offsetInCU: 0x27AC1, offset: 0x27AC1, size: 0x8, addend: 0x0, symName: __ZNSt3__116reverse_iteratorIPNS_6vectorIcNS_9allocatorIcEEEEEppB7v160006Ev, symObjAddr: 0xA24C, symBinAddr: 0x10000DB1C, symSize: 0x20 }
  - { offsetInCU: 0x27AE7, offset: 0x27AE7, size: 0x8, addend: 0x0, symName: __ZNSt3__128__exception_guard_exceptionsINS_29_AllocatorDestroyRangeReverseINS_9allocatorINS_6vectorIcNS2_IcEEEEEENS_16reverse_iteratorIPS5_EEEEE10__completeB7v160006Ev, symObjAddr: 0xA26C, symBinAddr: 0x10000DB3C, symSize: 0x1C }
  - { offsetInCU: 0x27B0D, offset: 0x27B0D, size: 0x8, addend: 0x0, symName: __ZNSt3__128__exception_guard_exceptionsINS_29_AllocatorDestroyRangeReverseINS_9allocatorINS_6vectorIcNS2_IcEEEEEENS_16reverse_iteratorIPS5_EEEEED1B7v160006Ev, symObjAddr: 0xA288, symBinAddr: 0x10000DB58, symSize: 0x2C }
  - { offsetInCU: 0x27B37, offset: 0x27B37, size: 0x8, addend: 0x0, symName: __ZNSt3__128__exception_guard_exceptionsINS_29_AllocatorDestroyRangeReverseINS_9allocatorINS_6vectorIcNS2_IcEEEEEENS_16reverse_iteratorIPS5_EEEEEC1B7v160006ESA_, symObjAddr: 0xA2B4, symBinAddr: 0x10000DB84, symSize: 0x34 }
  - { offsetInCU: 0x27B70, offset: 0x27B70, size: 0x8, addend: 0x0, symName: __ZNSt3__128__exception_guard_exceptionsINS_29_AllocatorDestroyRangeReverseINS_9allocatorINS_6vectorIcNS2_IcEEEEEENS_16reverse_iteratorIPS5_EEEEEC2B7v160006ESA_, symObjAddr: 0xA2E8, symBinAddr: 0x10000DBB8, symSize: 0x30 }
  - { offsetInCU: 0x27BA9, offset: 0x27BA9, size: 0x8, addend: 0x0, symName: __ZNSt3__129_AllocatorDestroyRangeReverseINS_9allocatorINS_6vectorIcNS1_IcEEEEEENS_16reverse_iteratorIPS4_EEEC2B7v160006ERS5_RS8_SB_, symObjAddr: 0xA318, symBinAddr: 0x10000DBE8, symSize: 0x38 }
  - { offsetInCU: 0x27C00, offset: 0x27C00, size: 0x8, addend: 0x0, symName: __ZNSt3__19allocatorINS_6vectorIcNS0_IcEEEEE9constructB7v160006IS3_JS3_EEEvPT_DpOT0_, symObjAddr: 0xA350, symBinAddr: 0x10000DC20, symSize: 0x30 }
  - { offsetInCU: 0x27C56, offset: 0x27C56, size: 0x8, addend: 0x0, symName: __ZNSt3__16vectorIcNS_9allocatorIcEEEC1B7v160006EOS3_, symObjAddr: 0xA380, symBinAddr: 0x10000DC50, symSize: 0x34 }
  - { offsetInCU: 0x27C91, offset: 0x27C91, size: 0x8, addend: 0x0, symName: __ZNSt3__16vectorIcNS_9allocatorIcEEEC2B7v160006EOS3_, symObjAddr: 0xA3B4, symBinAddr: 0x10000DC84, symSize: 0xDC }
  - { offsetInCU: 0x27CD1, offset: 0x27CD1, size: 0x8, addend: 0x0, symName: __ZNSt3__117__compressed_pairIPcNS_9allocatorIcEEEC1B7v160006IDnS3_EEOT_OT0_, symObjAddr: 0xA490, symBinAddr: 0x10000DD60, symSize: 0x3C }
  - { offsetInCU: 0x27D29, offset: 0x27D29, size: 0x8, addend: 0x0, symName: __ZNSt3__117__compressed_pairIPcNS_9allocatorIcEEEC2B7v160006IDnS3_EEOT_OT0_, symObjAddr: 0xA4E0, symBinAddr: 0x10000DDB0, symSize: 0x44 }
  - { offsetInCU: 0x27D81, offset: 0x27D81, size: 0x8, addend: 0x0, symName: __ZNSt3__122__compressed_pair_elemINS_9allocatorIcEELi1ELb1EEC2B7v160006IS2_vEEOT_, symObjAddr: 0xA524, symBinAddr: 0x10000DDF4, symSize: 0x18 }
  - { offsetInCU: 0x27DC8, offset: 0x27DC8, size: 0x8, addend: 0x0, symName: __ZNSt3__119__to_address_helperINS_16reverse_iteratorIPNS_6vectorIcNS_9allocatorIcEEEEEEvE6__callB7v160006ERKS7_, symObjAddr: 0xA53C, symBinAddr: 0x10000DE0C, symSize: 0x38 }
  - { offsetInCU: 0x27DEB, offset: 0x27DEB, size: 0x8, addend: 0x0, symName: __ZNKSt3__116reverse_iteratorIPNS_6vectorIcNS_9allocatorIcEEEEEptB7v160006Ev, symObjAddr: 0xA574, symBinAddr: 0x10000DE44, symSize: 0x24 }
  - { offsetInCU: 0x27E11, offset: 0x27E11, size: 0x8, addend: 0x0, symName: __ZNSt3__128__exception_guard_exceptionsINS_29_AllocatorDestroyRangeReverseINS_9allocatorINS_6vectorIcNS2_IcEEEEEENS_16reverse_iteratorIPS5_EEEEED2B7v160006Ev, symObjAddr: 0xA598, symBinAddr: 0x10000DE68, symSize: 0x50 }
  - { offsetInCU: 0x27E3B, offset: 0x27E3B, size: 0x8, addend: 0x0, symName: __ZNKSt3__129_AllocatorDestroyRangeReverseINS_9allocatorINS_6vectorIcNS1_IcEEEEEENS_16reverse_iteratorIPS4_EEEclB7v160006Ev, symObjAddr: 0xA5E8, symBinAddr: 0x10000DEB8, symSize: 0xB4 }
  - { offsetInCU: 0x27E62, offset: 0x27E62, size: 0x8, addend: 0x0, symName: __ZNSt3__116reverse_iteratorINS0_IPNS_6vectorIcNS_9allocatorIcEEEEEEEC1B7v160006ES6_, symObjAddr: 0xA70C, symBinAddr: 0x10000DFDC, symSize: 0x3C }
  - { offsetInCU: 0x27E9A, offset: 0x27E9A, size: 0x8, addend: 0x0, symName: __ZNSt3__116reverse_iteratorINS0_IPNS_6vectorIcNS_9allocatorIcEEEEEEEppB7v160006Ev, symObjAddr: 0xA7CC, symBinAddr: 0x10000E09C, symSize: 0x30 }
  - { offsetInCU: 0x27EC0, offset: 0x27EC0, size: 0x8, addend: 0x0, symName: __ZNKSt3__116reverse_iteratorINS0_IPNS_6vectorIcNS_9allocatorIcEEEEEEE4baseB7v160006Ev, symObjAddr: 0xA7FC, symBinAddr: 0x10000E0CC, symSize: 0x24 }
  - { offsetInCU: 0x27EEB, offset: 0x27EEB, size: 0x8, addend: 0x0, symName: __ZNSt3__119__to_address_helperINS_16reverse_iteratorINS1_IPNS_6vectorIcNS_9allocatorIcEEEEEEEEvE6__callB7v160006ERKS8_, symObjAddr: 0xA820, symBinAddr: 0x10000E0F0, symSize: 0x38 }
  - { offsetInCU: 0x27F0E, offset: 0x27F0E, size: 0x8, addend: 0x0, symName: __ZNKSt3__116reverse_iteratorINS0_IPNS_6vectorIcNS_9allocatorIcEEEEEEEptB7v160006Ev, symObjAddr: 0xA858, symBinAddr: 0x10000E128, symSize: 0x24 }
  - { offsetInCU: 0x27F34, offset: 0x27F34, size: 0x8, addend: 0x0, symName: __ZNKSt3__116reverse_iteratorINS0_IPNS_6vectorIcNS_9allocatorIcEEEEEEEdeB7v160006Ev, symObjAddr: 0xA87C, symBinAddr: 0x10000E14C, symSize: 0x34 }
  - { offsetInCU: 0x27F68, offset: 0x27F68, size: 0x8, addend: 0x0, symName: __ZNSt3__116reverse_iteratorIPNS_6vectorIcNS_9allocatorIcEEEEEmmB7v160006Ev, symObjAddr: 0xA8B0, symBinAddr: 0x10000E180, symSize: 0x20 }
  - { offsetInCU: 0x27F8E, offset: 0x27F8E, size: 0x8, addend: 0x0, symName: __ZNSt3__116reverse_iteratorINS0_IPNS_6vectorIcNS_9allocatorIcEEEEEEEC2B7v160006ES6_, symObjAddr: 0xA8D0, symBinAddr: 0x10000E1A0, symSize: 0x2C }
  - { offsetInCU: 0x27FC6, offset: 0x27FC6, size: 0x8, addend: 0x0, symName: __ZNSt3__116reverse_iteratorIPNS_6vectorIcNS_9allocatorIcEEEEEC2B7v160006ES5_, symObjAddr: 0xA8FC, symBinAddr: 0x10000E1CC, symSize: 0x28 }
  - { offsetInCU: 0x27FFE, offset: 0x27FFE, size: 0x8, addend: 0x0, symName: __ZNSt3__114__split_bufferINS_6vectorIcNS_9allocatorIcEEEERNS2_IS4_EEED2Ev, symObjAddr: 0xA924, symBinAddr: 0x10000E1F4, symSize: 0x8C }
  - { offsetInCU: 0x2802A, offset: 0x2802A, size: 0x8, addend: 0x0, symName: __ZNSt3__114__split_bufferINS_6vectorIcNS_9allocatorIcEEEERNS2_IS4_EEE5clearB7v160006Ev, symObjAddr: 0xA9B0, symBinAddr: 0x10000E280, symSize: 0x28 }
  - { offsetInCU: 0x28050, offset: 0x28050, size: 0x8, addend: 0x0, symName: __ZNKSt3__114__split_bufferINS_6vectorIcNS_9allocatorIcEEEERNS2_IS4_EEE8capacityB7v160006Ev, symObjAddr: 0xA9D8, symBinAddr: 0x10000E2A8, symSize: 0x40 }
  - { offsetInCU: 0x28076, offset: 0x28076, size: 0x8, addend: 0x0, symName: __ZNSt3__114__split_bufferINS_6vectorIcNS_9allocatorIcEEEERNS2_IS4_EEE17__destruct_at_endB7v160006EPS4_, symObjAddr: 0xAA18, symBinAddr: 0x10000E2E8, symSize: 0x2C }
  - { offsetInCU: 0x280AA, offset: 0x280AA, size: 0x8, addend: 0x0, symName: __ZNSt3__114__split_bufferINS_6vectorIcNS_9allocatorIcEEEERNS2_IS4_EEE17__destruct_at_endB7v160006EPS4_NS_17integral_constantIbLb0EEE, symObjAddr: 0xAA44, symBinAddr: 0x10000E314, symSize: 0x80 }
  - { offsetInCU: 0x280EA, offset: 0x280EA, size: 0x8, addend: 0x0, symName: __ZNKSt3__114__split_bufferINS_6vectorIcNS_9allocatorIcEEEERNS2_IS4_EEE9__end_capB7v160006Ev, symObjAddr: 0xAAC4, symBinAddr: 0x10000E394, symSize: 0x28 }
  - { offsetInCU: 0x28110, offset: 0x28110, size: 0x8, addend: 0x0, symName: __ZNKSt3__117__compressed_pairIPNS_6vectorIcNS_9allocatorIcEEEERNS2_IS4_EEE5firstB7v160006Ev, symObjAddr: 0xAAEC, symBinAddr: 0x10000E3BC, symSize: 0x24 }
  - { offsetInCU: 0x28136, offset: 0x28136, size: 0x8, addend: 0x0, symName: __ZNSt3__16vectorINS0_IcNS_9allocatorIcEEEENS1_IS3_EEE11__make_iterB7v160006EPS3_, symObjAddr: 0xAB10, symBinAddr: 0x10000E3E0, symSize: 0x34 }
  - { offsetInCU: 0x2816B, offset: 0x2816B, size: 0x8, addend: 0x0, symName: __ZNSt3__111__wrap_iterIPNS_6vectorIcNS_9allocatorIcEEEEEC1B7v160006EPKvS5_, symObjAddr: 0xAB44, symBinAddr: 0x10000E414, symSize: 0x3C }
  - { offsetInCU: 0x281B1, offset: 0x281B1, size: 0x8, addend: 0x0, symName: __ZNSt3__111__wrap_iterIPNS_6vectorIcNS_9allocatorIcEEEEEC2B7v160006EPKvS5_, symObjAddr: 0xAB80, symBinAddr: 0x10000E450, symSize: 0x24 }
  - { offsetInCU: 0x281F7, offset: 0x281F7, size: 0x8, addend: 0x0, symName: __ZNSt3__16vectorIcNS_9allocatorIcEEEC2ERKS3_, symObjAddr: 0xABA4, symBinAddr: 0x10000E474, symSize: 0x110 }
  - { offsetInCU: 0x28256, offset: 0x28256, size: 0x8, addend: 0x0, symName: __ZNSt3__116allocator_traitsINS_9allocatorIcEEE37select_on_container_copy_constructionB7v160006IS2_vvEES2_RKS2_, symObjAddr: 0xACB4, symBinAddr: 0x10000E584, symSize: 0x10 }
  - { offsetInCU: 0x28285, offset: 0x28285, size: 0x8, addend: 0x0, symName: __ZNSt3__16vectorIcNS_9allocatorIcEEE11__vallocateB7v160006Em, symObjAddr: 0xAD04, symBinAddr: 0x10000E5D4, symSize: 0xAC }
  - { offsetInCU: 0x282C9, offset: 0x282C9, size: 0x8, addend: 0x0, symName: __ZNSt3__16vectorIcNS_9allocatorIcEEE18__construct_at_endIPcLi0EEEvT_S6_m, symObjAddr: 0xADB0, symBinAddr: 0x10000E680, symSize: 0x8C }
  - { offsetInCU: 0x2833C, offset: 0x2833C, size: 0x8, addend: 0x0, symName: __ZNSt3__128__exception_guard_exceptionsINS_6vectorIcNS_9allocatorIcEEE16__destroy_vectorEE10__completeB7v160006Ev, symObjAddr: 0xAE3C, symBinAddr: 0x10000E70C, symSize: 0x1C }
  - { offsetInCU: 0x28362, offset: 0x28362, size: 0x8, addend: 0x0, symName: __ZNSt3__128__exception_guard_exceptionsINS_6vectorIcNS_9allocatorIcEEE16__destroy_vectorEED1B7v160006Ev, symObjAddr: 0xAE58, symBinAddr: 0x10000E728, symSize: 0x2C }
  - { offsetInCU: 0x2838C, offset: 0x2838C, size: 0x8, addend: 0x0, symName: __ZNSt3__128__exception_guard_exceptionsINS_6vectorIcNS_9allocatorIcEEE16__destroy_vectorEEC1B7v160006ES5_, symObjAddr: 0xAE84, symBinAddr: 0x10000E754, symSize: 0x34 }
  - { offsetInCU: 0x283C4, offset: 0x283C4, size: 0x8, addend: 0x0, symName: __ZNSt3__128__exception_guard_exceptionsINS_6vectorIcNS_9allocatorIcEEE16__destroy_vectorEEC2B7v160006ES5_, symObjAddr: 0xAEB8, symBinAddr: 0x10000E788, symSize: 0x24 }
  - { offsetInCU: 0x283FC, offset: 0x283FC, size: 0x8, addend: 0x0, symName: __ZNSt3__129_AllocatorDestroyRangeReverseINS_9allocatorIcEEPcEC1B7v160006ERS2_RS3_S6_, symObjAddr: 0xB01C, symBinAddr: 0x10000E8EC, symSize: 0x44 }
  - { offsetInCU: 0x28453, offset: 0x28453, size: 0x8, addend: 0x0, symName: __ZNSt3__116allocator_traitsINS_9allocatorIcEEE9constructB7v160006IcJRcEvEEvRS2_PT_DpOT0_, symObjAddr: 0xB060, symBinAddr: 0x10000E930, symSize: 0x34 }
  - { offsetInCU: 0x284AA, offset: 0x284AA, size: 0x8, addend: 0x0, symName: __ZNSt3__128__exception_guard_exceptionsINS_29_AllocatorDestroyRangeReverseINS_9allocatorIcEEPcEEE10__completeB7v160006Ev, symObjAddr: 0xB094, symBinAddr: 0x10000E964, symSize: 0x1C }
  - { offsetInCU: 0x284D0, offset: 0x284D0, size: 0x8, addend: 0x0, symName: __ZNSt3__128__exception_guard_exceptionsINS_29_AllocatorDestroyRangeReverseINS_9allocatorIcEEPcEEED1B7v160006Ev, symObjAddr: 0xB0B0, symBinAddr: 0x10000E980, symSize: 0x2C }
  - { offsetInCU: 0x284FA, offset: 0x284FA, size: 0x8, addend: 0x0, symName: __ZNSt3__128__exception_guard_exceptionsINS_29_AllocatorDestroyRangeReverseINS_9allocatorIcEEPcEEEC1B7v160006ES5_, symObjAddr: 0xB0DC, symBinAddr: 0x10000E9AC, symSize: 0x34 }
  - { offsetInCU: 0x28533, offset: 0x28533, size: 0x8, addend: 0x0, symName: __ZNSt3__128__exception_guard_exceptionsINS_29_AllocatorDestroyRangeReverseINS_9allocatorIcEEPcEEEC2B7v160006ES5_, symObjAddr: 0xB110, symBinAddr: 0x10000E9E0, symSize: 0x30 }
  - { offsetInCU: 0x2856C, offset: 0x2856C, size: 0x8, addend: 0x0, symName: __ZNSt3__129_AllocatorDestroyRangeReverseINS_9allocatorIcEEPcEC2B7v160006ERS2_RS3_S6_, symObjAddr: 0xB140, symBinAddr: 0x10000EA10, symSize: 0x38 }
  - { offsetInCU: 0x285C3, offset: 0x285C3, size: 0x8, addend: 0x0, symName: __ZNSt3__19allocatorIcE9constructB7v160006IcJRcEEEvPT_DpOT0_, symObjAddr: 0xB178, symBinAddr: 0x10000EA48, symSize: 0x28 }
  - { offsetInCU: 0x28619, offset: 0x28619, size: 0x8, addend: 0x0, symName: __ZNSt3__128__exception_guard_exceptionsINS_29_AllocatorDestroyRangeReverseINS_9allocatorIcEEPcEEED2B7v160006Ev, symObjAddr: 0xB1A0, symBinAddr: 0x10000EA70, symSize: 0x50 }
  - { offsetInCU: 0x28643, offset: 0x28643, size: 0x8, addend: 0x0, symName: __ZNKSt3__129_AllocatorDestroyRangeReverseINS_9allocatorIcEEPcEclB7v160006Ev, symObjAddr: 0xB1F0, symBinAddr: 0x10000EAC0, symSize: 0x68 }
  - { offsetInCU: 0x2866E, offset: 0x2866E, size: 0x8, addend: 0x0, symName: __ZNSt3__119__to_address_helperINS_16reverse_iteratorIPcEEvE6__callB7v160006ERKS3_, symObjAddr: 0xB2EC, symBinAddr: 0x10000EBBC, symSize: 0x38 }
  - { offsetInCU: 0x28691, offset: 0x28691, size: 0x8, addend: 0x0, symName: __ZNKSt3__116reverse_iteratorIPcEptB7v160006Ev, symObjAddr: 0xB324, symBinAddr: 0x10000EBF4, symSize: 0x24 }
  - { offsetInCU: 0x286B7, offset: 0x286B7, size: 0x8, addend: 0x0, symName: __ZNSt3__128__exception_guard_exceptionsINS_6vectorIcNS_9allocatorIcEEE16__destroy_vectorEED2B7v160006Ev, symObjAddr: 0xB348, symBinAddr: 0x10000EC18, symSize: 0x50 }
  - { offsetInCU: 0x286E1, offset: 0x286E1, size: 0x8, addend: 0x0, symName: __ZNSt3__16vectorIcNS_9allocatorIcEEE11__make_iterB7v160006EPc, symObjAddr: 0xB398, symBinAddr: 0x10000EC68, symSize: 0x34 }
  - { offsetInCU: 0x28716, offset: 0x28716, size: 0x8, addend: 0x0, symName: __ZNSt3__111__wrap_iterIPcEC1B7v160006EPKvS1_, symObjAddr: 0xB3CC, symBinAddr: 0x10000EC9C, symSize: 0x3C }
  - { offsetInCU: 0x2875C, offset: 0x2875C, size: 0x8, addend: 0x0, symName: __ZNSt3__111__wrap_iterIPcEC2B7v160006EPKvS1_, symObjAddr: 0xB408, symBinAddr: 0x10000ECD8, symSize: 0x24 }
  - { offsetInCU: 0x287A2, offset: 0x287A2, size: 0x8, addend: 0x0, symName: __ZNSt3__16vectorINS_4pairIccEENS_9allocatorIS2_EEE9__end_capB7v160006Ev, symObjAddr: 0xB42C, symBinAddr: 0x10000ECFC, symSize: 0x28 }
  - { offsetInCU: 0x287C8, offset: 0x287C8, size: 0x8, addend: 0x0, symName: __ZNSt3__16vectorINS_4pairIccEENS_9allocatorIS2_EEE22__construct_one_at_endB7v160006IJRKS2_EEEvDpOT_, symObjAddr: 0xB454, symBinAddr: 0x10000ED24, symSize: 0x90 }
  - { offsetInCU: 0x28817, offset: 0x28817, size: 0x8, addend: 0x0, symName: __ZNSt3__16vectorINS_4pairIccEENS_9allocatorIS2_EEE21__push_back_slow_pathIRKS2_EEvOT_, symObjAddr: 0xB4E4, symBinAddr: 0x10000EDB4, symSize: 0xD8 }
  - { offsetInCU: 0x28875, offset: 0x28875, size: 0x8, addend: 0x0, symName: __ZNSt3__117__compressed_pairIPNS_4pairIccEENS_9allocatorIS2_EEE5firstB7v160006Ev, symObjAddr: 0xB5BC, symBinAddr: 0x10000EE8C, symSize: 0x24 }
  - { offsetInCU: 0x2889B, offset: 0x2889B, size: 0x8, addend: 0x0, symName: __ZNSt3__122__compressed_pair_elemIPNS_4pairIccEELi0ELb0EE5__getB7v160006Ev, symObjAddr: 0xB5E0, symBinAddr: 0x10000EEB0, symSize: 0x14 }
  - { offsetInCU: 0x288DA, offset: 0x288DA, size: 0x8, addend: 0x0, symName: __ZNSt3__16vectorINS_4pairIccEENS_9allocatorIS2_EEE21_ConstructTransactionC1B7v160006ERS5_m, symObjAddr: 0xB5F4, symBinAddr: 0x10000EEC4, symSize: 0x3C }
  - { offsetInCU: 0x28922, offset: 0x28922, size: 0x8, addend: 0x0, symName: __ZNSt3__116allocator_traitsINS_9allocatorINS_4pairIccEEEEE9constructB7v160006IS3_JRKS3_EvEEvRS4_PT_DpOT0_, symObjAddr: 0xB630, symBinAddr: 0x10000EF00, symSize: 0x34 }
  - { offsetInCU: 0x28979, offset: 0x28979, size: 0x8, addend: 0x0, symName: __ZNSt3__16vectorINS_4pairIccEENS_9allocatorIS2_EEE21_ConstructTransactionD1B7v160006Ev, symObjAddr: 0xB664, symBinAddr: 0x10000EF34, symSize: 0x2C }
  - { offsetInCU: 0x289A3, offset: 0x289A3, size: 0x8, addend: 0x0, symName: __ZNSt3__16vectorINS_4pairIccEENS_9allocatorIS2_EEE21_ConstructTransactionC2B7v160006ERS5_m, symObjAddr: 0xB690, symBinAddr: 0x10000EF60, symSize: 0x44 }
  - { offsetInCU: 0x289EB, offset: 0x289EB, size: 0x8, addend: 0x0, symName: __ZNSt3__19allocatorINS_4pairIccEEE9constructB7v160006IS2_JRKS2_EEEvPT_DpOT0_, symObjAddr: 0xB6D4, symBinAddr: 0x10000EFA4, symSize: 0x28 }
  - { offsetInCU: 0x28A41, offset: 0x28A41, size: 0x8, addend: 0x0, symName: __ZNSt3__16vectorINS_4pairIccEENS_9allocatorIS2_EEE21_ConstructTransactionD2B7v160006Ev, symObjAddr: 0xB6FC, symBinAddr: 0x10000EFCC, symSize: 0x20 }
  - { offsetInCU: 0x28A6B, offset: 0x28A6B, size: 0x8, addend: 0x0, symName: __ZNKSt3__16vectorINS_4pairIccEENS_9allocatorIS2_EEE11__recommendB7v160006Em, symObjAddr: 0xB71C, symBinAddr: 0x10000EFEC, symSize: 0xB4 }
  - { offsetInCU: 0x28AC0, offset: 0x28AC0, size: 0x8, addend: 0x0, symName: __ZNSt3__114__split_bufferINS_4pairIccEERNS_9allocatorIS2_EEEC1EmmS5_, symObjAddr: 0xB7D0, symBinAddr: 0x10000F0A0, symSize: 0x44 }
  - { offsetInCU: 0x28B16, offset: 0x28B16, size: 0x8, addend: 0x0, symName: __ZNSt3__114__split_bufferINS_4pairIccEERNS_9allocatorIS2_EEED1Ev, symObjAddr: 0xB92C, symBinAddr: 0x10000F1FC, symSize: 0x2C }
  - { offsetInCU: 0x28B42, offset: 0x28B42, size: 0x8, addend: 0x0, symName: __ZNKSt3__16vectorINS_4pairIccEENS_9allocatorIS2_EEE8max_sizeEv, symObjAddr: 0xB958, symBinAddr: 0x10000F228, symSize: 0x60 }
  - { offsetInCU: 0x28B6A, offset: 0x28B6A, size: 0x8, addend: 0x0, symName: __ZNKSt3__16vectorINS_4pairIccEENS_9allocatorIS2_EEE20__throw_length_errorB7v160006Ev, symObjAddr: 0xB9B8, symBinAddr: 0x10000F288, symSize: 0x1C }
  - { offsetInCU: 0x28B9A, offset: 0x28B9A, size: 0x8, addend: 0x0, symName: __ZNSt3__116allocator_traitsINS_9allocatorINS_4pairIccEEEEE8max_sizeB7v160006IS4_vEEmRKS4_, symObjAddr: 0xB9D4, symBinAddr: 0x10000F2A4, symSize: 0x24 }
  - { offsetInCU: 0x28BC8, offset: 0x28BC8, size: 0x8, addend: 0x0, symName: __ZNKSt3__16vectorINS_4pairIccEENS_9allocatorIS2_EEE7__allocB7v160006Ev, symObjAddr: 0xB9F8, symBinAddr: 0x10000F2C8, symSize: 0x28 }
  - { offsetInCU: 0x28BEE, offset: 0x28BEE, size: 0x8, addend: 0x0, symName: __ZNKSt3__19allocatorINS_4pairIccEEE8max_sizeB7v160006Ev, symObjAddr: 0xBA20, symBinAddr: 0x10000F2F0, symSize: 0x14 }
  - { offsetInCU: 0x28C14, offset: 0x28C14, size: 0x8, addend: 0x0, symName: __ZNKSt3__117__compressed_pairIPNS_4pairIccEENS_9allocatorIS2_EEE6secondB7v160006Ev, symObjAddr: 0xBA34, symBinAddr: 0x10000F304, symSize: 0x24 }
  - { offsetInCU: 0x28C3A, offset: 0x28C3A, size: 0x8, addend: 0x0, symName: __ZNKSt3__122__compressed_pair_elemINS_9allocatorINS_4pairIccEEEELi1ELb1EE5__getB7v160006Ev, symObjAddr: 0xBA58, symBinAddr: 0x10000F328, symSize: 0x14 }
  - { offsetInCU: 0x28C60, offset: 0x28C60, size: 0x8, addend: 0x0, symName: __ZNSt3__114__split_bufferINS_4pairIccEERNS_9allocatorIS2_EEEC2EmmS5_, symObjAddr: 0xBA6C, symBinAddr: 0x10000F33C, symSize: 0xD4 }
  - { offsetInCU: 0x28CD3, offset: 0x28CD3, size: 0x8, addend: 0x0, symName: __ZNSt3__117__compressed_pairIPNS_4pairIccEERNS_9allocatorIS2_EEEC1B7v160006IDnS6_EEOT_OT0_, symObjAddr: 0xBB40, symBinAddr: 0x10000F410, symSize: 0x3C }
  - { offsetInCU: 0x28D2B, offset: 0x28D2B, size: 0x8, addend: 0x0, symName: __ZNSt3__114__split_bufferINS_4pairIccEERNS_9allocatorIS2_EEE7__allocB7v160006Ev, symObjAddr: 0xBBBC, symBinAddr: 0x10000F48C, symSize: 0x28 }
  - { offsetInCU: 0x28D51, offset: 0x28D51, size: 0x8, addend: 0x0, symName: __ZNSt3__114__split_bufferINS_4pairIccEERNS_9allocatorIS2_EEE9__end_capB7v160006Ev, symObjAddr: 0xBBE4, symBinAddr: 0x10000F4B4, symSize: 0x28 }
  - { offsetInCU: 0x28D77, offset: 0x28D77, size: 0x8, addend: 0x0, symName: __ZNSt3__117__compressed_pairIPNS_4pairIccEERNS_9allocatorIS2_EEEC2B7v160006IDnS6_EEOT_OT0_, symObjAddr: 0xBC0C, symBinAddr: 0x10000F4DC, symSize: 0x48 }
  - { offsetInCU: 0x28DCF, offset: 0x28DCF, size: 0x8, addend: 0x0, symName: __ZNSt3__122__compressed_pair_elemIRNS_9allocatorINS_4pairIccEEEELi1ELb0EEC2B7v160006IS5_vEEOT_, symObjAddr: 0xBC54, symBinAddr: 0x10000F524, symSize: 0x20 }
  - { offsetInCU: 0x28E11, offset: 0x28E11, size: 0x8, addend: 0x0, symName: __ZNSt3__19allocatorINS_4pairIccEEE8allocateB7v160006Em, symObjAddr: 0xBC74, symBinAddr: 0x10000F544, symSize: 0x58 }
  - { offsetInCU: 0x28E45, offset: 0x28E45, size: 0x8, addend: 0x0, symName: __ZNSt3__117__compressed_pairIPNS_4pairIccEERNS_9allocatorIS2_EEE6secondB7v160006Ev, symObjAddr: 0xBCCC, symBinAddr: 0x10000F59C, symSize: 0x28 }
  - { offsetInCU: 0x28E6B, offset: 0x28E6B, size: 0x8, addend: 0x0, symName: __ZNSt3__122__compressed_pair_elemIRNS_9allocatorINS_4pairIccEEEELi1ELb0EE5__getB7v160006Ev, symObjAddr: 0xBCF4, symBinAddr: 0x10000F5C4, symSize: 0x18 }
  - { offsetInCU: 0x28E91, offset: 0x28E91, size: 0x8, addend: 0x0, symName: __ZNSt3__117__compressed_pairIPNS_4pairIccEERNS_9allocatorIS2_EEE5firstB7v160006Ev, symObjAddr: 0xBD0C, symBinAddr: 0x10000F5DC, symSize: 0x24 }
  - { offsetInCU: 0x28EB7, offset: 0x28EB7, size: 0x8, addend: 0x0, symName: __ZNSt3__116reverse_iteratorIPNS_4pairIccEEEC1B7v160006ES3_, symObjAddr: 0xBE5C, symBinAddr: 0x10000F72C, symSize: 0x34 }
  - { offsetInCU: 0x28EEF, offset: 0x28EEF, size: 0x8, addend: 0x0, symName: __ZNKSt3__116reverse_iteratorIPNS_4pairIccEEE4baseB7v160006Ev, symObjAddr: 0xBE90, symBinAddr: 0x10000F760, symSize: 0x18 }
  - { offsetInCU: 0x28F15, offset: 0x28F15, size: 0x8, addend: 0x0, symName: __ZNKSt3__16vectorINS_4pairIccEENS_9allocatorIS2_EEE14__annotate_newB7v160006Em, symObjAddr: 0xBEE4, symBinAddr: 0x10000F7B4, symSize: 0xAC }
  - { offsetInCU: 0x28F4A, offset: 0x28F4A, size: 0x8, addend: 0x0, symName: __ZNSt3__129_AllocatorDestroyRangeReverseINS_9allocatorINS_4pairIccEEEENS_16reverse_iteratorIPS3_EEEC1B7v160006ERS4_RS7_SA_, symObjAddr: 0xBFEC, symBinAddr: 0x10000F8BC, symSize: 0x44 }
  - { offsetInCU: 0x28FA1, offset: 0x28FA1, size: 0x8, addend: 0x0, symName: __ZNSt3__116allocator_traitsINS_9allocatorINS_4pairIccEEEEE9constructB7v160006IS3_JS3_EvEEvRS4_PT_DpOT0_, symObjAddr: 0xC078, symBinAddr: 0x10000F948, symSize: 0x34 }
  - { offsetInCU: 0x28FF8, offset: 0x28FF8, size: 0x8, addend: 0x0, symName: __ZNKSt3__116reverse_iteratorIPNS_4pairIccEEEdeB7v160006Ev, symObjAddr: 0xC0D0, symBinAddr: 0x10000F9A0, symSize: 0x28 }
  - { offsetInCU: 0x2902C, offset: 0x2902C, size: 0x8, addend: 0x0, symName: __ZNSt3__116reverse_iteratorIPNS_4pairIccEEEppB7v160006Ev, symObjAddr: 0xC0F8, symBinAddr: 0x10000F9C8, symSize: 0x20 }
  - { offsetInCU: 0x29052, offset: 0x29052, size: 0x8, addend: 0x0, symName: __ZNSt3__128__exception_guard_exceptionsINS_29_AllocatorDestroyRangeReverseINS_9allocatorINS_4pairIccEEEENS_16reverse_iteratorIPS4_EEEEE10__completeB7v160006Ev, symObjAddr: 0xC118, symBinAddr: 0x10000F9E8, symSize: 0x1C }
  - { offsetInCU: 0x29078, offset: 0x29078, size: 0x8, addend: 0x0, symName: __ZNSt3__128__exception_guard_exceptionsINS_29_AllocatorDestroyRangeReverseINS_9allocatorINS_4pairIccEEEENS_16reverse_iteratorIPS4_EEEEED1B7v160006Ev, symObjAddr: 0xC134, symBinAddr: 0x10000FA04, symSize: 0x2C }
  - { offsetInCU: 0x290A2, offset: 0x290A2, size: 0x8, addend: 0x0, symName: __ZNSt3__128__exception_guard_exceptionsINS_29_AllocatorDestroyRangeReverseINS_9allocatorINS_4pairIccEEEENS_16reverse_iteratorIPS4_EEEEEC1B7v160006ES9_, symObjAddr: 0xC160, symBinAddr: 0x10000FA30, symSize: 0x34 }
  - { offsetInCU: 0x290DB, offset: 0x290DB, size: 0x8, addend: 0x0, symName: __ZNSt3__128__exception_guard_exceptionsINS_29_AllocatorDestroyRangeReverseINS_9allocatorINS_4pairIccEEEENS_16reverse_iteratorIPS4_EEEEEC2B7v160006ES9_, symObjAddr: 0xC194, symBinAddr: 0x10000FA64, symSize: 0x30 }
  - { offsetInCU: 0x29114, offset: 0x29114, size: 0x8, addend: 0x0, symName: __ZNSt3__129_AllocatorDestroyRangeReverseINS_9allocatorINS_4pairIccEEEENS_16reverse_iteratorIPS3_EEEC2B7v160006ERS4_RS7_SA_, symObjAddr: 0xC1C4, symBinAddr: 0x10000FA94, symSize: 0x38 }
  - { offsetInCU: 0x2916B, offset: 0x2916B, size: 0x8, addend: 0x0, symName: __ZNSt3__19allocatorINS_4pairIccEEE9constructB7v160006IS2_JS2_EEEvPT_DpOT0_, symObjAddr: 0xC1FC, symBinAddr: 0x10000FACC, symSize: 0x28 }
  - { offsetInCU: 0x291C6, offset: 0x291C6, size: 0x8, addend: 0x0, symName: __ZNSt3__119__to_address_helperINS_16reverse_iteratorIPNS_4pairIccEEEEvE6__callB7v160006ERKS5_, symObjAddr: 0xC224, symBinAddr: 0x10000FAF4, symSize: 0x38 }
  - { offsetInCU: 0x291E9, offset: 0x291E9, size: 0x8, addend: 0x0, symName: __ZNKSt3__116reverse_iteratorIPNS_4pairIccEEEptB7v160006Ev, symObjAddr: 0xC25C, symBinAddr: 0x10000FB2C, symSize: 0x24 }
  - { offsetInCU: 0x2920F, offset: 0x2920F, size: 0x8, addend: 0x0, symName: __ZNSt3__128__exception_guard_exceptionsINS_29_AllocatorDestroyRangeReverseINS_9allocatorINS_4pairIccEEEENS_16reverse_iteratorIPS4_EEEEED2B7v160006Ev, symObjAddr: 0xC280, symBinAddr: 0x10000FB50, symSize: 0x50 }
  - { offsetInCU: 0x29239, offset: 0x29239, size: 0x8, addend: 0x0, symName: __ZNKSt3__129_AllocatorDestroyRangeReverseINS_9allocatorINS_4pairIccEEEENS_16reverse_iteratorIPS3_EEEclB7v160006Ev, symObjAddr: 0xC2D0, symBinAddr: 0x10000FBA0, symSize: 0xB4 }
  - { offsetInCU: 0x29260, offset: 0x29260, size: 0x8, addend: 0x0, symName: __ZNSt3__116reverse_iteratorINS0_IPNS_4pairIccEEEEEC1B7v160006ES4_, symObjAddr: 0xC3F4, symBinAddr: 0x10000FCC4, symSize: 0x3C }
  - { offsetInCU: 0x29298, offset: 0x29298, size: 0x8, addend: 0x0, symName: __ZNSt3__116reverse_iteratorINS0_IPNS_4pairIccEEEEEppB7v160006Ev, symObjAddr: 0xC4B4, symBinAddr: 0x10000FD84, symSize: 0x30 }
  - { offsetInCU: 0x292BE, offset: 0x292BE, size: 0x8, addend: 0x0, symName: __ZNKSt3__116reverse_iteratorINS0_IPNS_4pairIccEEEEE4baseB7v160006Ev, symObjAddr: 0xC4E4, symBinAddr: 0x10000FDB4, symSize: 0x24 }
  - { offsetInCU: 0x292E9, offset: 0x292E9, size: 0x8, addend: 0x0, symName: __ZNSt3__119__to_address_helperINS_16reverse_iteratorINS1_IPNS_4pairIccEEEEEEvE6__callB7v160006ERKS6_, symObjAddr: 0xC508, symBinAddr: 0x10000FDD8, symSize: 0x38 }
  - { offsetInCU: 0x2930C, offset: 0x2930C, size: 0x8, addend: 0x0, symName: __ZNKSt3__116reverse_iteratorINS0_IPNS_4pairIccEEEEEptB7v160006Ev, symObjAddr: 0xC540, symBinAddr: 0x10000FE10, symSize: 0x24 }
  - { offsetInCU: 0x29332, offset: 0x29332, size: 0x8, addend: 0x0, symName: __ZNKSt3__116reverse_iteratorINS0_IPNS_4pairIccEEEEEdeB7v160006Ev, symObjAddr: 0xC564, symBinAddr: 0x10000FE34, symSize: 0x34 }
  - { offsetInCU: 0x29366, offset: 0x29366, size: 0x8, addend: 0x0, symName: __ZNSt3__116reverse_iteratorIPNS_4pairIccEEEmmB7v160006Ev, symObjAddr: 0xC598, symBinAddr: 0x10000FE68, symSize: 0x20 }
  - { offsetInCU: 0x2938C, offset: 0x2938C, size: 0x8, addend: 0x0, symName: __ZNSt3__116reverse_iteratorINS0_IPNS_4pairIccEEEEEC2B7v160006ES4_, symObjAddr: 0xC5B8, symBinAddr: 0x10000FE88, symSize: 0x2C }
  - { offsetInCU: 0x293C4, offset: 0x293C4, size: 0x8, addend: 0x0, symName: __ZNSt3__116reverse_iteratorIPNS_4pairIccEEEC2B7v160006ES3_, symObjAddr: 0xC5E4, symBinAddr: 0x10000FEB4, symSize: 0x28 }
  - { offsetInCU: 0x293FC, offset: 0x293FC, size: 0x8, addend: 0x0, symName: __ZNSt3__114__split_bufferINS_4pairIccEERNS_9allocatorIS2_EEED2Ev, symObjAddr: 0xC60C, symBinAddr: 0x10000FEDC, symSize: 0x8C }
  - { offsetInCU: 0x29428, offset: 0x29428, size: 0x8, addend: 0x0, symName: __ZNSt3__114__split_bufferINS_4pairIccEERNS_9allocatorIS2_EEE5clearB7v160006Ev, symObjAddr: 0xC698, symBinAddr: 0x10000FF68, symSize: 0x28 }
  - { offsetInCU: 0x2944E, offset: 0x2944E, size: 0x8, addend: 0x0, symName: __ZNKSt3__114__split_bufferINS_4pairIccEERNS_9allocatorIS2_EEE8capacityB7v160006Ev, symObjAddr: 0xC6C0, symBinAddr: 0x10000FF90, symSize: 0x40 }
  - { offsetInCU: 0x29474, offset: 0x29474, size: 0x8, addend: 0x0, symName: __ZNSt3__114__split_bufferINS_4pairIccEERNS_9allocatorIS2_EEE17__destruct_at_endB7v160006EPS2_, symObjAddr: 0xC700, symBinAddr: 0x10000FFD0, symSize: 0x2C }
  - { offsetInCU: 0x294A8, offset: 0x294A8, size: 0x8, addend: 0x0, symName: __ZNSt3__114__split_bufferINS_4pairIccEERNS_9allocatorIS2_EEE17__destruct_at_endB7v160006EPS2_NS_17integral_constantIbLb0EEE, symObjAddr: 0xC72C, symBinAddr: 0x10000FFFC, symSize: 0x80 }
  - { offsetInCU: 0x294E8, offset: 0x294E8, size: 0x8, addend: 0x0, symName: __ZNKSt3__114__split_bufferINS_4pairIccEERNS_9allocatorIS2_EEE9__end_capB7v160006Ev, symObjAddr: 0xC7AC, symBinAddr: 0x10001007C, symSize: 0x28 }
  - { offsetInCU: 0x2950E, offset: 0x2950E, size: 0x8, addend: 0x0, symName: __ZNKSt3__117__compressed_pairIPNS_4pairIccEERNS_9allocatorIS2_EEE5firstB7v160006Ev, symObjAddr: 0xC7D4, symBinAddr: 0x1000100A4, symSize: 0x24 }
  - { offsetInCU: 0x29534, offset: 0x29534, size: 0x8, addend: 0x0, symName: __ZNSt3__13mapIciNS_4lessIcEENS_9allocatorINS_4pairIKciEEEEEC2B7v160006Ev, symObjAddr: 0xC7F8, symBinAddr: 0x1000100C8, symSize: 0x40 }
  - { offsetInCU: 0x2955E, offset: 0x2955E, size: 0x8, addend: 0x0, symName: __ZNSt3__119__map_value_compareIcNS_12__value_typeIciEENS_4lessIcEELb1EEC1B7v160006ES4_, symObjAddr: 0xC838, symBinAddr: 0x100010108, symSize: 0x2C }
  - { offsetInCU: 0x29597, offset: 0x29597, size: 0x8, addend: 0x0, symName: __ZNSt3__16__treeINS_12__value_typeIciEENS_19__map_value_compareIcS2_NS_4lessIcEELb1EEENS_9allocatorIS2_EEEC1ERKS6_, symObjAddr: 0xC864, symBinAddr: 0x100010134, symSize: 0x34 }
  - { offsetInCU: 0x295D2, offset: 0x295D2, size: 0x8, addend: 0x0, symName: __ZNSt3__119__map_value_compareIcNS_12__value_typeIciEENS_4lessIcEELb1EEC2B7v160006ES4_, symObjAddr: 0xC898, symBinAddr: 0x100010168, symSize: 0x14 }
  - { offsetInCU: 0x2960B, offset: 0x2960B, size: 0x8, addend: 0x0, symName: __ZNSt3__16__treeINS_12__value_typeIciEENS_19__map_value_compareIcS2_NS_4lessIcEELb1EEENS_9allocatorIS2_EEEC2ERKS6_, symObjAddr: 0xC8AC, symBinAddr: 0x10001017C, symSize: 0x7C }
  - { offsetInCU: 0x29646, offset: 0x29646, size: 0x8, addend: 0x0, symName: __ZNSt3__117__compressed_pairINS_15__tree_end_nodeIPNS_16__tree_node_baseIPvEEEENS_9allocatorINS_11__tree_nodeINS_12__value_typeIciEES3_EEEEEC1B7v160006ILb1EvEEv, symObjAddr: 0xC928, symBinAddr: 0x1000101F8, symSize: 0x2C }
  - { offsetInCU: 0x2967B, offset: 0x2967B, size: 0x8, addend: 0x0, symName: __ZNSt3__117__compressed_pairImNS_19__map_value_compareIcNS_12__value_typeIciEENS_4lessIcEELb1EEEEC1B7v160006IiRKS6_EEOT_OT0_, symObjAddr: 0xC954, symBinAddr: 0x100010224, symSize: 0x3C }
  - { offsetInCU: 0x296D3, offset: 0x296D3, size: 0x8, addend: 0x0, symName: __ZNSt3__16__treeINS_12__value_typeIciEENS_19__map_value_compareIcS2_NS_4lessIcEELb1EEENS_9allocatorIS2_EEE10__end_nodeB7v160006Ev, symObjAddr: 0xC990, symBinAddr: 0x100010260, symSize: 0x2C }
  - { offsetInCU: 0x296F9, offset: 0x296F9, size: 0x8, addend: 0x0, symName: __ZNSt3__16__treeINS_12__value_typeIciEENS_19__map_value_compareIcS2_NS_4lessIcEELb1EEENS_9allocatorIS2_EEE12__begin_nodeB7v160006Ev, symObjAddr: 0xC9BC, symBinAddr: 0x10001028C, symSize: 0x14 }
  - { offsetInCU: 0x2971F, offset: 0x2971F, size: 0x8, addend: 0x0, symName: __ZNSt3__117__compressed_pairINS_15__tree_end_nodeIPNS_16__tree_node_baseIPvEEEENS_9allocatorINS_11__tree_nodeINS_12__value_typeIciEES3_EEEEEC2B7v160006ILb1EvEEv, symObjAddr: 0xC9D0, symBinAddr: 0x1000102A0, symSize: 0x34 }
  - { offsetInCU: 0x29754, offset: 0x29754, size: 0x8, addend: 0x0, symName: __ZNSt3__122__compressed_pair_elemINS_9allocatorINS_11__tree_nodeINS_12__value_typeIciEEPvEEEELi1ELb1EEC2B7v160006ENS_16__value_init_tagE, symObjAddr: 0xCA04, symBinAddr: 0x1000102D4, symSize: 0x2C }
  - { offsetInCU: 0x29788, offset: 0x29788, size: 0x8, addend: 0x0, symName: __ZNSt3__19allocatorINS_11__tree_nodeINS_12__value_typeIciEEPvEEEC2B7v160006Ev, symObjAddr: 0xCA30, symBinAddr: 0x100010300, symSize: 0x2C }
  - { offsetInCU: 0x297B2, offset: 0x297B2, size: 0x8, addend: 0x0, symName: __ZNSt3__116__non_trivial_ifILb1ENS_9allocatorINS_11__tree_nodeINS_12__value_typeIciEEPvEEEEEC2B7v160006Ev, symObjAddr: 0xCA5C, symBinAddr: 0x10001032C, symSize: 0x14 }
  - { offsetInCU: 0x297DC, offset: 0x297DC, size: 0x8, addend: 0x0, symName: __ZNSt3__117__compressed_pairImNS_19__map_value_compareIcNS_12__value_typeIciEENS_4lessIcEELb1EEEEC2B7v160006IiRKS6_EEOT_OT0_, symObjAddr: 0xCA70, symBinAddr: 0x100010340, symSize: 0x44 }
  - { offsetInCU: 0x29834, offset: 0x29834, size: 0x8, addend: 0x0, symName: __ZNSt3__122__compressed_pair_elemINS_19__map_value_compareIcNS_12__value_typeIciEENS_4lessIcEELb1EEELi1ELb1EEC2B7v160006IRKS6_vEEOT_, symObjAddr: 0xCAB4, symBinAddr: 0x100010384, symSize: 0x18 }
  - { offsetInCU: 0x29876, offset: 0x29876, size: 0x8, addend: 0x0, symName: __ZNSt3__117__compressed_pairINS_15__tree_end_nodeIPNS_16__tree_node_baseIPvEEEENS_9allocatorINS_11__tree_nodeINS_12__value_typeIciEES3_EEEEE5firstB7v160006Ev, symObjAddr: 0xCACC, symBinAddr: 0x10001039C, symSize: 0x24 }
  - { offsetInCU: 0x2989C, offset: 0x2989C, size: 0x8, addend: 0x0, symName: __ZNSt3__13mapIciNS_4lessIcEENS_9allocatorINS_4pairIKciEEEEED2B7v160006Ev, symObjAddr: 0xCAF0, symBinAddr: 0x1000103C0, symSize: 0x2C }
  - { offsetInCU: 0x298C6, offset: 0x298C6, size: 0x8, addend: 0x0, symName: __ZNSt3__16__treeINS_12__value_typeIciEENS_19__map_value_compareIcS2_NS_4lessIcEELb1EEENS_9allocatorIS2_EEED1Ev, symObjAddr: 0xCB1C, symBinAddr: 0x1000103EC, symSize: 0x2C }
  - { offsetInCU: 0x298F2, offset: 0x298F2, size: 0x8, addend: 0x0, symName: __ZNSt3__16__treeINS_12__value_typeIciEENS_19__map_value_compareIcS2_NS_4lessIcEELb1EEENS_9allocatorIS2_EEED2Ev, symObjAddr: 0xCB48, symBinAddr: 0x100010418, symSize: 0x38 }
  - { offsetInCU: 0x2991E, offset: 0x2991E, size: 0x8, addend: 0x0, symName: __ZNSt3__16__treeINS_12__value_typeIciEENS_19__map_value_compareIcS2_NS_4lessIcEELb1EEENS_9allocatorIS2_EEE7destroyEPNS_11__tree_nodeIS2_PvEE, symObjAddr: 0xCB80, symBinAddr: 0x100010450, symSize: 0xAC }
  - { offsetInCU: 0x2996A, offset: 0x2996A, size: 0x8, addend: 0x0, symName: __ZNKSt3__16__treeINS_12__value_typeIciEENS_19__map_value_compareIcS2_NS_4lessIcEELb1EEENS_9allocatorIS2_EEE6__rootB7v160006Ev, symObjAddr: 0xCC2C, symBinAddr: 0x1000104FC, symSize: 0x28 }
  - { offsetInCU: 0x29990, offset: 0x29990, size: 0x8, addend: 0x0, symName: __ZNSt3__16__treeINS_12__value_typeIciEENS_19__map_value_compareIcS2_NS_4lessIcEELb1EEENS_9allocatorIS2_EEE12__node_allocB7v160006Ev, symObjAddr: 0xCC54, symBinAddr: 0x100010524, symSize: 0x28 }
  - { offsetInCU: 0x299B6, offset: 0x299B6, size: 0x8, addend: 0x0, symName: __ZNSt3__116allocator_traitsINS_9allocatorINS_11__tree_nodeINS_12__value_typeIciEEPvEEEEE7destroyB7v160006INS_4pairIKciEEvvEEvRS7_PT_, symObjAddr: 0xCC7C, symBinAddr: 0x10001054C, symSize: 0x14 }
  - { offsetInCU: 0x299F0, offset: 0x299F0, size: 0x8, addend: 0x0, symName: __ZNSt3__122__tree_key_value_typesINS_12__value_typeIciEEE9__get_ptrB7v160006ERS2_, symObjAddr: 0xCC90, symBinAddr: 0x100010560, symSize: 0x24 }
  - { offsetInCU: 0x29A14, offset: 0x29A14, size: 0x8, addend: 0x0, symName: __ZNSt3__116allocator_traitsINS_9allocatorINS_11__tree_nodeINS_12__value_typeIciEEPvEEEEE10deallocateB7v160006ERS7_PS6_m, symObjAddr: 0xCCB4, symBinAddr: 0x100010584, symSize: 0x34 }
  - { offsetInCU: 0x29A56, offset: 0x29A56, size: 0x8, addend: 0x0, symName: __ZNSt3__117__compressed_pairINS_15__tree_end_nodeIPNS_16__tree_node_baseIPvEEEENS_9allocatorINS_11__tree_nodeINS_12__value_typeIciEES3_EEEEE6secondB7v160006Ev, symObjAddr: 0xCCE8, symBinAddr: 0x1000105B8, symSize: 0x24 }
  - { offsetInCU: 0x29A7C, offset: 0x29A7C, size: 0x8, addend: 0x0, symName: __ZNSt3__122__compressed_pair_elemINS_9allocatorINS_11__tree_nodeINS_12__value_typeIciEEPvEEEELi1ELb1EE5__getB7v160006Ev, symObjAddr: 0xCD0C, symBinAddr: 0x1000105DC, symSize: 0x14 }
  - { offsetInCU: 0x29AA2, offset: 0x29AA2, size: 0x8, addend: 0x0, symName: __ZNSt3__112__value_typeIciE11__get_valueB7v160006Ev, symObjAddr: 0xCD20, symBinAddr: 0x1000105F0, symSize: 0x14 }
  - { offsetInCU: 0x29AC8, offset: 0x29AC8, size: 0x8, addend: 0x0, symName: __ZNSt3__19allocatorINS_11__tree_nodeINS_12__value_typeIciEEPvEEE10deallocateB7v160006EPS5_m, symObjAddr: 0xCD34, symBinAddr: 0x100010604, symSize: 0x44 }
  - { offsetInCU: 0x29B0A, offset: 0x29B0A, size: 0x8, addend: 0x0, symName: __ZNKSt3__16__treeINS_12__value_typeIciEENS_19__map_value_compareIcS2_NS_4lessIcEELb1EEENS_9allocatorIS2_EEE10__end_nodeB7v160006Ev, symObjAddr: 0xCD78, symBinAddr: 0x100010648, symSize: 0x2C }
  - { offsetInCU: 0x29B30, offset: 0x29B30, size: 0x8, addend: 0x0, symName: __ZNKSt3__117__compressed_pairINS_15__tree_end_nodeIPNS_16__tree_node_baseIPvEEEENS_9allocatorINS_11__tree_nodeINS_12__value_typeIciEES3_EEEEE5firstB7v160006Ev, symObjAddr: 0xCDA4, symBinAddr: 0x100010674, symSize: 0x24 }
  - { offsetInCU: 0x29B56, offset: 0x29B56, size: 0x8, addend: 0x0, symName: __ZNKSt3__16__treeINS_12__value_typeIcP7adjNodeEENS_19__map_value_compareIcS4_NS_4lessIcEELb1EEENS_9allocatorIS4_EEE5beginB7v160006Ev, symObjAddr: 0xCDC8, symBinAddr: 0x100010698, symSize: 0x34 }
  - { offsetInCU: 0x29B7C, offset: 0x29B7C, size: 0x8, addend: 0x0, symName: __ZNKSt3__16__treeINS_12__value_typeIcP7adjNodeEENS_19__map_value_compareIcS4_NS_4lessIcEELb1EEENS_9allocatorIS4_EEE12__begin_nodeB7v160006Ev, symObjAddr: 0xCDFC, symBinAddr: 0x1000106CC, symSize: 0x14 }
  - { offsetInCU: 0x29BA2, offset: 0x29BA2, size: 0x8, addend: 0x0, symName: __ZNSt3__121__tree_const_iteratorINS_12__value_typeIcP7adjNodeEEPNS_11__tree_nodeIS4_PvEElEC1B7v160006EPNS_15__tree_end_nodeIPNS_16__tree_node_baseIS6_EEEE, symObjAddr: 0xCE10, symBinAddr: 0x1000106E0, symSize: 0x34 }
  - { offsetInCU: 0x29BDB, offset: 0x29BDB, size: 0x8, addend: 0x0, symName: __ZNSt3__121__tree_const_iteratorINS_12__value_typeIcP7adjNodeEEPNS_11__tree_nodeIS4_PvEElEC2B7v160006EPNS_15__tree_end_nodeIPNS_16__tree_node_baseIS6_EEEE, symObjAddr: 0xCE44, symBinAddr: 0x100010714, symSize: 0x20 }
  - { offsetInCU: 0x29C14, offset: 0x29C14, size: 0x8, addend: 0x0, symName: __ZNKSt3__16__treeINS_12__value_typeIcP7adjNodeEENS_19__map_value_compareIcS4_NS_4lessIcEELb1EEENS_9allocatorIS4_EEE3endB7v160006Ev, symObjAddr: 0xCE64, symBinAddr: 0x100010734, symSize: 0x34 }
  - { offsetInCU: 0x29C3A, offset: 0x29C3A, size: 0x8, addend: 0x0, symName: __ZNKSt3__121__tree_const_iteratorINS_12__value_typeIcP7adjNodeEEPNS_11__tree_nodeIS4_PvEElEptB7v160006Ev, symObjAddr: 0xCECC, symBinAddr: 0x10001079C, symSize: 0x2C }
  - { offsetInCU: 0x29C60, offset: 0x29C60, size: 0x8, addend: 0x0, symName: __ZNSt3__114pointer_traitsIPKNS_12__value_typeIcP7adjNodeEEE10pointer_toB7v160006ERS5_, symObjAddr: 0xCEF8, symBinAddr: 0x1000107C8, symSize: 0x14 }
  - { offsetInCU: 0x29C83, offset: 0x29C83, size: 0x8, addend: 0x0, symName: __ZNSt3__16__treeINS_12__value_typeIciEENS_19__map_value_compareIcS2_NS_4lessIcEELb1EEENS_9allocatorIS2_EEE25__emplace_unique_key_argsIcJRKNS_21piecewise_construct_tENS_5tupleIJRKcEEENSE_IJEEEEEENS_4pairINS_15__tree_iteratorIS2_PNS_11__tree_nodeIS2_PvEElEEbEERKT_DpOT0_, symObjAddr: 0xCF0C, symBinAddr: 0x1000107DC, symSize: 0x100 }
  - { offsetInCU: 0x29D59, offset: 0x29D59, size: 0x8, addend: 0x0, symName: __ZNKSt3__115__tree_iteratorINS_12__value_typeIciEEPNS_11__tree_nodeIS2_PvEElEptB7v160006Ev, symObjAddr: 0xD00C, symBinAddr: 0x1000108DC, symSize: 0x2C }
  - { offsetInCU: 0x29D7F, offset: 0x29D7F, size: 0x8, addend: 0x0, symName: __ZNSt3__16__treeINS_12__value_typeIciEENS_19__map_value_compareIcS2_NS_4lessIcEELb1EEENS_9allocatorIS2_EEE12__find_equalIcEERPNS_16__tree_node_baseIPvEERPNS_15__tree_end_nodeISE_EERKT_, symObjAddr: 0xD038, symBinAddr: 0x100010908, symSize: 0x184 }
  - { offsetInCU: 0x29DEC, offset: 0x29DEC, size: 0x8, addend: 0x0, symName: __ZNSt3__16__treeINS_12__value_typeIciEENS_19__map_value_compareIcS2_NS_4lessIcEELb1EEENS_9allocatorIS2_EEE16__construct_nodeIJRKNS_21piecewise_construct_tENS_5tupleIJRKcEEENSE_IJEEEEEENS_10unique_ptrINS_11__tree_nodeIS2_PvEENS_22__tree_node_destructorINS7_ISM_EEEEEEDpOT_, symObjAddr: 0xD1BC, symBinAddr: 0x100010A8C, symSize: 0x120 }
  - { offsetInCU: 0x29E75, offset: 0x29E75, size: 0x8, addend: 0x0, symName: __ZNSt3__16__treeINS_12__value_typeIciEENS_19__map_value_compareIcS2_NS_4lessIcEELb1EEENS_9allocatorIS2_EEE16__insert_node_atEPNS_15__tree_end_nodeIPNS_16__tree_node_baseIPvEEEERSE_SE_, symObjAddr: 0xD2DC, symBinAddr: 0x100010BAC, symSize: 0xCC }
  - { offsetInCU: 0x29ECA, offset: 0x29ECA, size: 0x8, addend: 0x0, symName: __ZNKSt3__110unique_ptrINS_11__tree_nodeINS_12__value_typeIciEEPvEENS_22__tree_node_destructorINS_9allocatorIS5_EEEEE3getB7v160006Ev, symObjAddr: 0xD3A8, symBinAddr: 0x100010C78, symSize: 0x28 }
  - { offsetInCU: 0x29EF0, offset: 0x29EF0, size: 0x8, addend: 0x0, symName: __ZNSt3__110unique_ptrINS_11__tree_nodeINS_12__value_typeIciEEPvEENS_22__tree_node_destructorINS_9allocatorIS5_EEEEE7releaseB7v160006Ev, symObjAddr: 0xD3D0, symBinAddr: 0x100010CA0, symSize: 0x44 }
  - { offsetInCU: 0x29F25, offset: 0x29F25, size: 0x8, addend: 0x0, symName: __ZNSt3__110unique_ptrINS_11__tree_nodeINS_12__value_typeIciEEPvEENS_22__tree_node_destructorINS_9allocatorIS5_EEEEED1B7v160006Ev, symObjAddr: 0xD414, symBinAddr: 0x100010CE4, symSize: 0x2C }
  - { offsetInCU: 0x29F4F, offset: 0x29F4F, size: 0x8, addend: 0x0, symName: __ZNSt3__115__tree_iteratorINS_12__value_typeIciEEPNS_11__tree_nodeIS2_PvEElEC1B7v160006ES6_, symObjAddr: 0xD440, symBinAddr: 0x100010D10, symSize: 0x34 }
  - { offsetInCU: 0x29F8D, offset: 0x29F8D, size: 0x8, addend: 0x0, symName: __ZNSt3__14pairINS_15__tree_iteratorINS_12__value_typeIciEEPNS_11__tree_nodeIS3_PvEElEEbEC1B7v160006IS8_RbLS5_0EEEOT_OT0_, symObjAddr: 0xD474, symBinAddr: 0x100010D44, symSize: 0x3C }
  - { offsetInCU: 0x29FEB, offset: 0x29FEB, size: 0x8, addend: 0x0, symName: __ZNKSt3__16__treeINS_12__value_typeIciEENS_19__map_value_compareIcS2_NS_4lessIcEELb1EEENS_9allocatorIS2_EEE10__root_ptrEv, symObjAddr: 0xD4B0, symBinAddr: 0x100010D80, symSize: 0x24 }
  - { offsetInCU: 0x2A011, offset: 0x2A011, size: 0x8, addend: 0x0, symName: __ZNSt3__16__treeINS_12__value_typeIciEENS_19__map_value_compareIcS2_NS_4lessIcEELb1EEENS_9allocatorIS2_EEE10value_compB7v160006Ev, symObjAddr: 0xD4D4, symBinAddr: 0x100010DA4, symSize: 0x28 }
  - { offsetInCU: 0x2A037, offset: 0x2A037, size: 0x8, addend: 0x0, symName: __ZNKSt3__119__map_value_compareIcNS_12__value_typeIciEENS_4lessIcEELb1EEclB7v160006ERKcRKS2_, symObjAddr: 0xD4FC, symBinAddr: 0x100010DCC, symSize: 0x50 }
  - { offsetInCU: 0x2A07B, offset: 0x2A07B, size: 0x8, addend: 0x0, symName: __ZNKSt3__119__map_value_compareIcNS_12__value_typeIciEENS_4lessIcEELb1EEclB7v160006ERKS2_RKc, symObjAddr: 0xD54C, symBinAddr: 0x100010E1C, symSize: 0x48 }
  - { offsetInCU: 0x2A0BF, offset: 0x2A0BF, size: 0x8, addend: 0x0, symName: __ZNSt3__117__compressed_pairImNS_19__map_value_compareIcNS_12__value_typeIciEENS_4lessIcEELb1EEEE6secondB7v160006Ev, symObjAddr: 0xD594, symBinAddr: 0x100010E64, symSize: 0x24 }
  - { offsetInCU: 0x2A0E5, offset: 0x2A0E5, size: 0x8, addend: 0x0, symName: __ZNSt3__122__compressed_pair_elemINS_19__map_value_compareIcNS_12__value_typeIciEENS_4lessIcEELb1EEELi1ELb1EE5__getB7v160006Ev, symObjAddr: 0xD5B8, symBinAddr: 0x100010E88, symSize: 0x14 }
  - { offsetInCU: 0x2A10B, offset: 0x2A10B, size: 0x8, addend: 0x0, symName: __ZNKSt3__112__value_typeIciE11__get_valueB7v160006Ev, symObjAddr: 0xD5CC, symBinAddr: 0x100010E9C, symSize: 0x14 }
  - { offsetInCU: 0x2A131, offset: 0x2A131, size: 0x8, addend: 0x0, symName: __ZNSt3__116allocator_traitsINS_9allocatorINS_11__tree_nodeINS_12__value_typeIciEEPvEEEEE8allocateB7v160006ERS7_m, symObjAddr: 0xD5E0, symBinAddr: 0x100010EB0, symSize: 0x2C }
  - { offsetInCU: 0x2A164, offset: 0x2A164, size: 0x8, addend: 0x0, symName: __ZNSt3__122__tree_node_destructorINS_9allocatorINS_11__tree_nodeINS_12__value_typeIciEEPvEEEEEC1B7v160006ERS7_b, symObjAddr: 0xD60C, symBinAddr: 0x100010EDC, symSize: 0x48 }
  - { offsetInCU: 0x2A1B1, offset: 0x2A1B1, size: 0x8, addend: 0x0, symName: __ZNSt3__110unique_ptrINS_11__tree_nodeINS_12__value_typeIciEEPvEENS_22__tree_node_destructorINS_9allocatorIS5_EEEEEC1B7v160006ILb1EvEEPS5_NS_16__dependent_typeINS_27__unique_ptr_deleter_sfinaeIS9_EEXT_EE20__good_rval_ref_typeE, symObjAddr: 0xD654, symBinAddr: 0x100010F24, symSize: 0x3C }
  - { offsetInCU: 0x2A202, offset: 0x2A202, size: 0x8, addend: 0x0, symName: __ZNSt3__116allocator_traitsINS_9allocatorINS_11__tree_nodeINS_12__value_typeIciEEPvEEEEE9constructB7v160006INS_4pairIKciEEJRKNS_21piecewise_construct_tENS_5tupleIJRSB_EEENSG_IJEEEEvEEvRS7_PT_DpOT0_, symObjAddr: 0xD690, symBinAddr: 0x100010F60, symSize: 0x44 }
  - { offsetInCU: 0x2A281, offset: 0x2A281, size: 0x8, addend: 0x0, symName: __ZNKSt3__110unique_ptrINS_11__tree_nodeINS_12__value_typeIciEEPvEENS_22__tree_node_destructorINS_9allocatorIS5_EEEEEptB7v160006Ev, symObjAddr: 0xD6D4, symBinAddr: 0x100010FA4, symSize: 0x28 }
  - { offsetInCU: 0x2A2A7, offset: 0x2A2A7, size: 0x8, addend: 0x0, symName: __ZNSt3__110unique_ptrINS_11__tree_nodeINS_12__value_typeIciEEPvEENS_22__tree_node_destructorINS_9allocatorIS5_EEEEE11get_deleterB7v160006Ev, symObjAddr: 0xD6FC, symBinAddr: 0x100010FCC, symSize: 0x24 }
  - { offsetInCU: 0x2A2CD, offset: 0x2A2CD, size: 0x8, addend: 0x0, symName: __ZNSt3__19allocatorINS_11__tree_nodeINS_12__value_typeIciEEPvEEE8allocateB7v160006Em, symObjAddr: 0xD720, symBinAddr: 0x100010FF0, symSize: 0x5C }
  - { offsetInCU: 0x2A30B, offset: 0x2A30B, size: 0x8, addend: 0x0, symName: __ZNSt3__116allocator_traitsINS_9allocatorINS_11__tree_nodeINS_12__value_typeIciEEPvEEEEE8max_sizeB7v160006IS7_vEEmRKS7_, symObjAddr: 0xD77C, symBinAddr: 0x10001104C, symSize: 0x24 }
  - { offsetInCU: 0x2A339, offset: 0x2A339, size: 0x8, addend: 0x0, symName: __ZNKSt3__19allocatorINS_11__tree_nodeINS_12__value_typeIciEEPvEEE8max_sizeB7v160006Ev, symObjAddr: 0xD7A0, symBinAddr: 0x100011070, symSize: 0x18 }
  - { offsetInCU: 0x2A35F, offset: 0x2A35F, size: 0x8, addend: 0x0, symName: __ZNSt3__122__tree_node_destructorINS_9allocatorINS_11__tree_nodeINS_12__value_typeIciEEPvEEEEEC2B7v160006ERS7_b, symObjAddr: 0xD7B8, symBinAddr: 0x100011088, symSize: 0x38 }
  - { offsetInCU: 0x2A3A7, offset: 0x2A3A7, size: 0x8, addend: 0x0, symName: __ZNSt3__110unique_ptrINS_11__tree_nodeINS_12__value_typeIciEEPvEENS_22__tree_node_destructorINS_9allocatorIS5_EEEEEC2B7v160006ILb1EvEEPS5_NS_16__dependent_typeINS_27__unique_ptr_deleter_sfinaeIS9_EEXT_EE20__good_rval_ref_typeE, symObjAddr: 0xD7F0, symBinAddr: 0x1000110C0, symSize: 0x48 }
  - { offsetInCU: 0x2A3F8, offset: 0x2A3F8, size: 0x8, addend: 0x0, symName: __ZNSt3__117__compressed_pairIPNS_11__tree_nodeINS_12__value_typeIciEEPvEENS_22__tree_node_destructorINS_9allocatorIS5_EEEEEC1B7v160006IRS6_SA_EEOT_OT0_, symObjAddr: 0xD838, symBinAddr: 0x100011108, symSize: 0x3C }
  - { offsetInCU: 0x2A450, offset: 0x2A450, size: 0x8, addend: 0x0, symName: __ZNSt3__117__compressed_pairIPNS_11__tree_nodeINS_12__value_typeIciEEPvEENS_22__tree_node_destructorINS_9allocatorIS5_EEEEEC2B7v160006IRS6_SA_EEOT_OT0_, symObjAddr: 0xD874, symBinAddr: 0x100011144, symSize: 0x48 }
  - { offsetInCU: 0x2A4A8, offset: 0x2A4A8, size: 0x8, addend: 0x0, symName: __ZNSt3__122__compressed_pair_elemIPNS_11__tree_nodeINS_12__value_typeIciEEPvEELi0ELb0EEC2B7v160006IRS6_vEEOT_, symObjAddr: 0xD8BC, symBinAddr: 0x10001118C, symSize: 0x24 }
  - { offsetInCU: 0x2A4EA, offset: 0x2A4EA, size: 0x8, addend: 0x0, symName: __ZNSt3__122__compressed_pair_elemINS_22__tree_node_destructorINS_9allocatorINS_11__tree_nodeINS_12__value_typeIciEEPvEEEEEELi1ELb0EEC2B7v160006IS9_vEEOT_, symObjAddr: 0xD8E0, symBinAddr: 0x1000111B0, symSize: 0x24 }
  - { offsetInCU: 0x2A52C, offset: 0x2A52C, size: 0x8, addend: 0x0, symName: __ZNSt3__19allocatorINS_11__tree_nodeINS_12__value_typeIciEEPvEEE9constructB7v160006INS_4pairIKciEEJRKNS_21piecewise_construct_tENS_5tupleIJRS9_EEENSE_IJEEEEEEvPT_DpOT0_, symObjAddr: 0xD904, symBinAddr: 0x1000111D4, symSize: 0x44 }
  - { offsetInCU: 0x2A5A8, offset: 0x2A5A8, size: 0x8, addend: 0x0, symName: __ZNSt3__14pairIKciEC1B7v160006IJRS1_EJEEENS_21piecewise_construct_tENS_5tupleIJDpT_EEENS6_IJDpT0_EEE, symObjAddr: 0xD948, symBinAddr: 0x100011218, symSize: 0x44 }
  - { offsetInCU: 0x2A60F, offset: 0x2A60F, size: 0x8, addend: 0x0, symName: __ZNSt3__14pairIKciEC1B7v160006IJRS1_EJEJLm0EEJEEENS_21piecewise_construct_tERNS_5tupleIJDpT_EEERNS6_IJDpT0_EEENS_15__tuple_indicesIJXspT1_EEEENSF_IJXspT2_EEEE, symObjAddr: 0xD98C, symBinAddr: 0x10001125C, symSize: 0x3C }
  - { offsetInCU: 0x2A69C, offset: 0x2A69C, size: 0x8, addend: 0x0, symName: __ZNSt3__14pairIKciEC2B7v160006IJRS1_EJEJLm0EEJEEENS_21piecewise_construct_tERNS_5tupleIJDpT_EEERNS6_IJDpT0_EEENS_15__tuple_indicesIJXspT1_EEEENSF_IJXspT2_EEEE, symObjAddr: 0xD9C8, symBinAddr: 0x100011298, symSize: 0x48 }
  - { offsetInCU: 0x2A729, offset: 0x2A729, size: 0x8, addend: 0x0, symName: __ZNKSt3__117__compressed_pairIPNS_11__tree_nodeINS_12__value_typeIciEEPvEENS_22__tree_node_destructorINS_9allocatorIS5_EEEEE5firstB7v160006Ev, symObjAddr: 0xDA10, symBinAddr: 0x1000112E0, symSize: 0x24 }
  - { offsetInCU: 0x2A74F, offset: 0x2A74F, size: 0x8, addend: 0x0, symName: __ZNKSt3__122__compressed_pair_elemIPNS_11__tree_nodeINS_12__value_typeIciEEPvEELi0ELb0EE5__getB7v160006Ev, symObjAddr: 0xDA34, symBinAddr: 0x100011304, symSize: 0x14 }
  - { offsetInCU: 0x2A775, offset: 0x2A775, size: 0x8, addend: 0x0, symName: __ZNSt3__117__compressed_pairIPNS_11__tree_nodeINS_12__value_typeIciEEPvEENS_22__tree_node_destructorINS_9allocatorIS5_EEEEE6secondB7v160006Ev, symObjAddr: 0xDA48, symBinAddr: 0x100011318, symSize: 0x28 }
  - { offsetInCU: 0x2A79B, offset: 0x2A79B, size: 0x8, addend: 0x0, symName: __ZNSt3__122__compressed_pair_elemINS_22__tree_node_destructorINS_9allocatorINS_11__tree_nodeINS_12__value_typeIciEEPvEEEEEELi1ELb0EE5__getB7v160006Ev, symObjAddr: 0xDA70, symBinAddr: 0x100011340, symSize: 0x14 }
  - { offsetInCU: 0x2A7C1, offset: 0x2A7C1, size: 0x8, addend: 0x0, symName: __ZNSt3__16__treeINS_12__value_typeIciEENS_19__map_value_compareIcS2_NS_4lessIcEELb1EEENS_9allocatorIS2_EEE4sizeB7v160006Ev, symObjAddr: 0xDA84, symBinAddr: 0x100011354, symSize: 0x28 }
  - { offsetInCU: 0x2A7E7, offset: 0x2A7E7, size: 0x8, addend: 0x0, symName: __ZNSt3__117__compressed_pairImNS_19__map_value_compareIcNS_12__value_typeIciEENS_4lessIcEELb1EEEE5firstB7v160006Ev, symObjAddr: 0xDAAC, symBinAddr: 0x10001137C, symSize: 0x24 }
  - { offsetInCU: 0x2A80D, offset: 0x2A80D, size: 0x8, addend: 0x0, symName: __ZNSt3__117__compressed_pairIPNS_11__tree_nodeINS_12__value_typeIciEEPvEENS_22__tree_node_destructorINS_9allocatorIS5_EEEEE5firstB7v160006Ev, symObjAddr: 0xDAD0, symBinAddr: 0x1000113A0, symSize: 0x24 }
  - { offsetInCU: 0x2A833, offset: 0x2A833, size: 0x8, addend: 0x0, symName: __ZNSt3__122__compressed_pair_elemIPNS_11__tree_nodeINS_12__value_typeIciEEPvEELi0ELb0EE5__getB7v160006Ev, symObjAddr: 0xDAF4, symBinAddr: 0x1000113C4, symSize: 0x14 }
  - { offsetInCU: 0x2A859, offset: 0x2A859, size: 0x8, addend: 0x0, symName: __ZNSt3__110unique_ptrINS_11__tree_nodeINS_12__value_typeIciEEPvEENS_22__tree_node_destructorINS_9allocatorIS5_EEEEED2B7v160006Ev, symObjAddr: 0xDB08, symBinAddr: 0x1000113D8, symSize: 0x30 }
  - { offsetInCU: 0x2A883, offset: 0x2A883, size: 0x8, addend: 0x0, symName: __ZNSt3__110unique_ptrINS_11__tree_nodeINS_12__value_typeIciEEPvEENS_22__tree_node_destructorINS_9allocatorIS5_EEEEE5resetB7v160006EPS5_, symObjAddr: 0xDB38, symBinAddr: 0x100011408, symSize: 0x78 }
  - { offsetInCU: 0x2A8C7, offset: 0x2A8C7, size: 0x8, addend: 0x0, symName: __ZNSt3__122__tree_node_destructorINS_9allocatorINS_11__tree_nodeINS_12__value_typeIciEEPvEEEEEclB7v160006EPS6_, symObjAddr: 0xDBB0, symBinAddr: 0x100011480, symSize: 0x94 }
  - { offsetInCU: 0x2A8FC, offset: 0x2A8FC, size: 0x8, addend: 0x0, symName: __ZNSt3__115__tree_iteratorINS_12__value_typeIciEEPNS_11__tree_nodeIS2_PvEElEC2B7v160006ES6_, symObjAddr: 0xDC44, symBinAddr: 0x100011514, symSize: 0x20 }
  - { offsetInCU: 0x2A935, offset: 0x2A935, size: 0x8, addend: 0x0, symName: __ZNSt3__14pairINS_15__tree_iteratorINS_12__value_typeIciEEPNS_11__tree_nodeIS3_PvEElEEbEC2B7v160006IS8_RbLS5_0EEEOT_OT0_, symObjAddr: 0xDC64, symBinAddr: 0x100011534, symSize: 0x38 }
  - { offsetInCU: 0x2A993, offset: 0x2A993, size: 0x8, addend: 0x0, symName: __ZNSt3__114pointer_traitsIPNS_12__value_typeIciEEE10pointer_toB7v160006ERS2_, symObjAddr: 0xDC9C, symBinAddr: 0x10001156C, symSize: 0x14 }
  - { offsetInCU: 0x2A9B6, offset: 0x2A9B6, size: 0x8, addend: 0x0, symName: __ZNKSt3__115__tree_iteratorINS_12__value_typeIciEEPNS_11__tree_nodeIS2_PvEElE8__get_npB7v160006Ev, symObjAddr: 0xDCB0, symBinAddr: 0x100011580, symSize: 0x18 }
  - { offsetInCU: 0x2A9DC, offset: 0x2A9DC, size: 0x8, addend: 0x0, symName: __ZNSt3__114priority_queueINS_4pairIicEENS_6vectorIS2_NS_9allocatorIS2_EEEENS_7greaterIS2_EEEC2B7v160006Ev, symObjAddr: 0xDCC8, symBinAddr: 0x100011598, symSize: 0x2C }
  - { offsetInCU: 0x2AA06, offset: 0x2AA06, size: 0x8, addend: 0x0, symName: __ZNSt3__16vectorINS_4pairIicEENS_9allocatorIS2_EEEC1B7v160006Ev, symObjAddr: 0xDCF4, symBinAddr: 0x1000115C4, symSize: 0x2C }
  - { offsetInCU: 0x2AA30, offset: 0x2AA30, size: 0x8, addend: 0x0, symName: __ZNSt3__16vectorINS_4pairIicEENS_9allocatorIS2_EEEC2B7v160006Ev, symObjAddr: 0xDD20, symBinAddr: 0x1000115F0, symSize: 0x58 }
  - { offsetInCU: 0x2AA5A, offset: 0x2AA5A, size: 0x8, addend: 0x0, symName: __ZNSt3__117__compressed_pairIPNS_4pairIicEENS_9allocatorIS2_EEEC1B7v160006IDnNS_18__default_init_tagEEEOT_OT0_, symObjAddr: 0xDD78, symBinAddr: 0x100011648, symSize: 0x3C }
  - { offsetInCU: 0x2AAB2, offset: 0x2AAB2, size: 0x8, addend: 0x0, symName: __ZNSt3__117__compressed_pairIPNS_4pairIicEENS_9allocatorIS2_EEEC2B7v160006IDnNS_18__default_init_tagEEEOT_OT0_, symObjAddr: 0xDDC4, symBinAddr: 0x100011694, symSize: 0x40 }
  - { offsetInCU: 0x2AB0A, offset: 0x2AB0A, size: 0x8, addend: 0x0, symName: __ZNSt3__122__compressed_pair_elemIPNS_4pairIicEELi0ELb0EEC2B7v160006IDnvEEOT_, symObjAddr: 0xDE04, symBinAddr: 0x1000116D4, symSize: 0x1C }
  - { offsetInCU: 0x2AB4C, offset: 0x2AB4C, size: 0x8, addend: 0x0, symName: __ZNSt3__122__compressed_pair_elemINS_9allocatorINS_4pairIicEEEELi1ELb1EEC2B7v160006ENS_18__default_init_tagE, symObjAddr: 0xDE20, symBinAddr: 0x1000116F0, symSize: 0x2C }
  - { offsetInCU: 0x2AB80, offset: 0x2AB80, size: 0x8, addend: 0x0, symName: __ZNSt3__19allocatorINS_4pairIicEEEC2B7v160006Ev, symObjAddr: 0xDE4C, symBinAddr: 0x10001171C, symSize: 0x2C }
  - { offsetInCU: 0x2ABAA, offset: 0x2ABAA, size: 0x8, addend: 0x0, symName: __ZNSt3__116__non_trivial_ifILb1ENS_9allocatorINS_4pairIicEEEEEC2B7v160006Ev, symObjAddr: 0xDE78, symBinAddr: 0x100011748, symSize: 0x14 }
  - { offsetInCU: 0x2ABD4, offset: 0x2ABD4, size: 0x8, addend: 0x0, symName: __ZNSt3__16vectorINS_4pairIicEENS_9allocatorIS2_EEE9push_backB7v160006EOS2_, symObjAddr: 0xDE8C, symBinAddr: 0x10001175C, symSize: 0x6C }
  - { offsetInCU: 0x2AC0B, offset: 0x2AC0B, size: 0x8, addend: 0x0, symName: __ZNSt3__16vectorINS_4pairIicEENS_9allocatorIS2_EEE5beginB7v160006Ev, symObjAddr: 0xDF38, symBinAddr: 0x100011808, symSize: 0x30 }
  - { offsetInCU: 0x2AC33, offset: 0x2AC33, size: 0x8, addend: 0x0, symName: __ZNSt3__16vectorINS_4pairIicEENS_9allocatorIS2_EEE3endB7v160006Ev, symObjAddr: 0xDF68, symBinAddr: 0x100011838, symSize: 0x30 }
  - { offsetInCU: 0x2AC5B, offset: 0x2AC5B, size: 0x8, addend: 0x0, symName: __ZNSt3__16vectorINS_4pairIicEENS_9allocatorIS2_EEE9__end_capB7v160006Ev, symObjAddr: 0xDF98, symBinAddr: 0x100011868, symSize: 0x28 }
  - { offsetInCU: 0x2AC81, offset: 0x2AC81, size: 0x8, addend: 0x0, symName: __ZNSt3__16vectorINS_4pairIicEENS_9allocatorIS2_EEE22__construct_one_at_endB7v160006IJS2_EEEvDpOT_, symObjAddr: 0xDFC0, symBinAddr: 0x100011890, symSize: 0x90 }
  - { offsetInCU: 0x2ACD0, offset: 0x2ACD0, size: 0x8, addend: 0x0, symName: __ZNSt3__16vectorINS_4pairIicEENS_9allocatorIS2_EEE21__push_back_slow_pathIS2_EEvOT_, symObjAddr: 0xE050, symBinAddr: 0x100011920, symSize: 0xD8 }
  - { offsetInCU: 0x2AD2E, offset: 0x2AD2E, size: 0x8, addend: 0x0, symName: __ZNSt3__117__compressed_pairIPNS_4pairIicEENS_9allocatorIS2_EEE5firstB7v160006Ev, symObjAddr: 0xE128, symBinAddr: 0x1000119F8, symSize: 0x24 }
  - { offsetInCU: 0x2AD54, offset: 0x2AD54, size: 0x8, addend: 0x0, symName: __ZNSt3__122__compressed_pair_elemIPNS_4pairIicEELi0ELb0EE5__getB7v160006Ev, symObjAddr: 0xE14C, symBinAddr: 0x100011A1C, symSize: 0x14 }
  - { offsetInCU: 0x2AD93, offset: 0x2AD93, size: 0x8, addend: 0x0, symName: __ZNSt3__16vectorINS_4pairIicEENS_9allocatorIS2_EEE21_ConstructTransactionC1B7v160006ERS5_m, symObjAddr: 0xE160, symBinAddr: 0x100011A30, symSize: 0x3C }
  - { offsetInCU: 0x2ADDB, offset: 0x2ADDB, size: 0x8, addend: 0x0, symName: __ZNSt3__116allocator_traitsINS_9allocatorINS_4pairIicEEEEE9constructB7v160006IS3_JS3_EvEEvRS4_PT_DpOT0_, symObjAddr: 0xE19C, symBinAddr: 0x100011A6C, symSize: 0x34 }
  - { offsetInCU: 0x2AE32, offset: 0x2AE32, size: 0x8, addend: 0x0, symName: __ZNSt3__16vectorINS_4pairIicEENS_9allocatorIS2_EEE21_ConstructTransactionD1B7v160006Ev, symObjAddr: 0xE1D0, symBinAddr: 0x100011AA0, symSize: 0x2C }
  - { offsetInCU: 0x2AE5C, offset: 0x2AE5C, size: 0x8, addend: 0x0, symName: __ZNSt3__16vectorINS_4pairIicEENS_9allocatorIS2_EEE21_ConstructTransactionC2B7v160006ERS5_m, symObjAddr: 0xE1FC, symBinAddr: 0x100011ACC, symSize: 0x44 }
  - { offsetInCU: 0x2AEA4, offset: 0x2AEA4, size: 0x8, addend: 0x0, symName: __ZNSt3__19allocatorINS_4pairIicEEE9constructB7v160006IS2_JS2_EEEvPT_DpOT0_, symObjAddr: 0xE240, symBinAddr: 0x100011B10, symSize: 0x28 }
  - { offsetInCU: 0x2AEFA, offset: 0x2AEFA, size: 0x8, addend: 0x0, symName: __ZNSt3__16vectorINS_4pairIicEENS_9allocatorIS2_EEE21_ConstructTransactionD2B7v160006Ev, symObjAddr: 0xE268, symBinAddr: 0x100011B38, symSize: 0x20 }
  - { offsetInCU: 0x2AF24, offset: 0x2AF24, size: 0x8, addend: 0x0, symName: __ZNKSt3__16vectorINS_4pairIicEENS_9allocatorIS2_EEE11__recommendB7v160006Em, symObjAddr: 0xE288, symBinAddr: 0x100011B58, symSize: 0xB4 }
  - { offsetInCU: 0x2AF79, offset: 0x2AF79, size: 0x8, addend: 0x0, symName: __ZNSt3__114__split_bufferINS_4pairIicEERNS_9allocatorIS2_EEEC1EmmS5_, symObjAddr: 0xE33C, symBinAddr: 0x100011C0C, symSize: 0x44 }
  - { offsetInCU: 0x2AFCF, offset: 0x2AFCF, size: 0x8, addend: 0x0, symName: __ZNSt3__114__split_bufferINS_4pairIicEERNS_9allocatorIS2_EEED1Ev, symObjAddr: 0xE498, symBinAddr: 0x100011D68, symSize: 0x2C }
  - { offsetInCU: 0x2AFFB, offset: 0x2AFFB, size: 0x8, addend: 0x0, symName: __ZNKSt3__16vectorINS_4pairIicEENS_9allocatorIS2_EEE8max_sizeEv, symObjAddr: 0xE4C4, symBinAddr: 0x100011D94, symSize: 0x60 }
  - { offsetInCU: 0x2B023, offset: 0x2B023, size: 0x8, addend: 0x0, symName: __ZNKSt3__16vectorINS_4pairIicEENS_9allocatorIS2_EEE20__throw_length_errorB7v160006Ev, symObjAddr: 0xE524, symBinAddr: 0x100011DF4, symSize: 0x1C }
  - { offsetInCU: 0x2B053, offset: 0x2B053, size: 0x8, addend: 0x0, symName: __ZNSt3__116allocator_traitsINS_9allocatorINS_4pairIicEEEEE8max_sizeB7v160006IS4_vEEmRKS4_, symObjAddr: 0xE540, symBinAddr: 0x100011E10, symSize: 0x24 }
  - { offsetInCU: 0x2B081, offset: 0x2B081, size: 0x8, addend: 0x0, symName: __ZNKSt3__16vectorINS_4pairIicEENS_9allocatorIS2_EEE7__allocB7v160006Ev, symObjAddr: 0xE564, symBinAddr: 0x100011E34, symSize: 0x28 }
  - { offsetInCU: 0x2B0A7, offset: 0x2B0A7, size: 0x8, addend: 0x0, symName: __ZNKSt3__19allocatorINS_4pairIicEEE8max_sizeB7v160006Ev, symObjAddr: 0xE58C, symBinAddr: 0x100011E5C, symSize: 0x14 }
  - { offsetInCU: 0x2B0CD, offset: 0x2B0CD, size: 0x8, addend: 0x0, symName: __ZNKSt3__117__compressed_pairIPNS_4pairIicEENS_9allocatorIS2_EEE6secondB7v160006Ev, symObjAddr: 0xE5A0, symBinAddr: 0x100011E70, symSize: 0x24 }
  - { offsetInCU: 0x2B0F3, offset: 0x2B0F3, size: 0x8, addend: 0x0, symName: __ZNKSt3__122__compressed_pair_elemINS_9allocatorINS_4pairIicEEEELi1ELb1EE5__getB7v160006Ev, symObjAddr: 0xE5C4, symBinAddr: 0x100011E94, symSize: 0x14 }
  - { offsetInCU: 0x2B119, offset: 0x2B119, size: 0x8, addend: 0x0, symName: __ZNSt3__114__split_bufferINS_4pairIicEERNS_9allocatorIS2_EEEC2EmmS5_, symObjAddr: 0xE5D8, symBinAddr: 0x100011EA8, symSize: 0xD4 }
  - { offsetInCU: 0x2B18C, offset: 0x2B18C, size: 0x8, addend: 0x0, symName: __ZNSt3__117__compressed_pairIPNS_4pairIicEERNS_9allocatorIS2_EEEC1B7v160006IDnS6_EEOT_OT0_, symObjAddr: 0xE6AC, symBinAddr: 0x100011F7C, symSize: 0x3C }
  - { offsetInCU: 0x2B1E4, offset: 0x2B1E4, size: 0x8, addend: 0x0, symName: __ZNSt3__114__split_bufferINS_4pairIicEERNS_9allocatorIS2_EEE7__allocB7v160006Ev, symObjAddr: 0xE728, symBinAddr: 0x100011FF8, symSize: 0x28 }
  - { offsetInCU: 0x2B20A, offset: 0x2B20A, size: 0x8, addend: 0x0, symName: __ZNSt3__114__split_bufferINS_4pairIicEERNS_9allocatorIS2_EEE9__end_capB7v160006Ev, symObjAddr: 0xE750, symBinAddr: 0x100012020, symSize: 0x28 }
  - { offsetInCU: 0x2B230, offset: 0x2B230, size: 0x8, addend: 0x0, symName: __ZNSt3__117__compressed_pairIPNS_4pairIicEERNS_9allocatorIS2_EEEC2B7v160006IDnS6_EEOT_OT0_, symObjAddr: 0xE778, symBinAddr: 0x100012048, symSize: 0x48 }
  - { offsetInCU: 0x2B288, offset: 0x2B288, size: 0x8, addend: 0x0, symName: __ZNSt3__122__compressed_pair_elemIRNS_9allocatorINS_4pairIicEEEELi1ELb0EEC2B7v160006IS5_vEEOT_, symObjAddr: 0xE7C0, symBinAddr: 0x100012090, symSize: 0x20 }
  - { offsetInCU: 0x2B2CA, offset: 0x2B2CA, size: 0x8, addend: 0x0, symName: __ZNSt3__19allocatorINS_4pairIicEEE8allocateB7v160006Em, symObjAddr: 0xE7E0, symBinAddr: 0x1000120B0, symSize: 0x58 }
  - { offsetInCU: 0x2B2FE, offset: 0x2B2FE, size: 0x8, addend: 0x0, symName: __ZNSt3__117__compressed_pairIPNS_4pairIicEERNS_9allocatorIS2_EEE6secondB7v160006Ev, symObjAddr: 0xE838, symBinAddr: 0x100012108, symSize: 0x28 }
  - { offsetInCU: 0x2B324, offset: 0x2B324, size: 0x8, addend: 0x0, symName: __ZNSt3__122__compressed_pair_elemIRNS_9allocatorINS_4pairIicEEEELi1ELb0EE5__getB7v160006Ev, symObjAddr: 0xE860, symBinAddr: 0x100012130, symSize: 0x18 }
  - { offsetInCU: 0x2B34A, offset: 0x2B34A, size: 0x8, addend: 0x0, symName: __ZNSt3__117__compressed_pairIPNS_4pairIicEERNS_9allocatorIS2_EEE5firstB7v160006Ev, symObjAddr: 0xE878, symBinAddr: 0x100012148, symSize: 0x24 }
  - { offsetInCU: 0x2B370, offset: 0x2B370, size: 0x8, addend: 0x0, symName: __ZNSt3__116reverse_iteratorIPNS_4pairIicEEEC1B7v160006ES3_, symObjAddr: 0xE9C8, symBinAddr: 0x100012298, symSize: 0x34 }
  - { offsetInCU: 0x2B3A8, offset: 0x2B3A8, size: 0x8, addend: 0x0, symName: __ZNKSt3__116reverse_iteratorIPNS_4pairIicEEE4baseB7v160006Ev, symObjAddr: 0xE9FC, symBinAddr: 0x1000122CC, symSize: 0x18 }
  - { offsetInCU: 0x2B3CE, offset: 0x2B3CE, size: 0x8, addend: 0x0, symName: __ZNKSt3__16vectorINS_4pairIicEENS_9allocatorIS2_EEE14__annotate_newB7v160006Em, symObjAddr: 0xEA50, symBinAddr: 0x100012320, symSize: 0xAC }
  - { offsetInCU: 0x2B403, offset: 0x2B403, size: 0x8, addend: 0x0, symName: __ZNSt3__129_AllocatorDestroyRangeReverseINS_9allocatorINS_4pairIicEEEENS_16reverse_iteratorIPS3_EEEC1B7v160006ERS4_RS7_SA_, symObjAddr: 0xEB58, symBinAddr: 0x100012428, symSize: 0x44 }
  - { offsetInCU: 0x2B45A, offset: 0x2B45A, size: 0x8, addend: 0x0, symName: __ZNKSt3__116reverse_iteratorIPNS_4pairIicEEEdeB7v160006Ev, symObjAddr: 0xEC08, symBinAddr: 0x1000124D8, symSize: 0x28 }
  - { offsetInCU: 0x2B48E, offset: 0x2B48E, size: 0x8, addend: 0x0, symName: __ZNSt3__116reverse_iteratorIPNS_4pairIicEEEppB7v160006Ev, symObjAddr: 0xEC30, symBinAddr: 0x100012500, symSize: 0x20 }
  - { offsetInCU: 0x2B4B4, offset: 0x2B4B4, size: 0x8, addend: 0x0, symName: __ZNSt3__128__exception_guard_exceptionsINS_29_AllocatorDestroyRangeReverseINS_9allocatorINS_4pairIicEEEENS_16reverse_iteratorIPS4_EEEEE10__completeB7v160006Ev, symObjAddr: 0xEC50, symBinAddr: 0x100012520, symSize: 0x1C }
  - { offsetInCU: 0x2B4DA, offset: 0x2B4DA, size: 0x8, addend: 0x0, symName: __ZNSt3__128__exception_guard_exceptionsINS_29_AllocatorDestroyRangeReverseINS_9allocatorINS_4pairIicEEEENS_16reverse_iteratorIPS4_EEEEED1B7v160006Ev, symObjAddr: 0xEC6C, symBinAddr: 0x10001253C, symSize: 0x2C }
  - { offsetInCU: 0x2B504, offset: 0x2B504, size: 0x8, addend: 0x0, symName: __ZNSt3__128__exception_guard_exceptionsINS_29_AllocatorDestroyRangeReverseINS_9allocatorINS_4pairIicEEEENS_16reverse_iteratorIPS4_EEEEEC1B7v160006ES9_, symObjAddr: 0xEC98, symBinAddr: 0x100012568, symSize: 0x34 }
  - { offsetInCU: 0x2B53D, offset: 0x2B53D, size: 0x8, addend: 0x0, symName: __ZNSt3__128__exception_guard_exceptionsINS_29_AllocatorDestroyRangeReverseINS_9allocatorINS_4pairIicEEEENS_16reverse_iteratorIPS4_EEEEEC2B7v160006ES9_, symObjAddr: 0xECCC, symBinAddr: 0x10001259C, symSize: 0x30 }
  - { offsetInCU: 0x2B576, offset: 0x2B576, size: 0x8, addend: 0x0, symName: __ZNSt3__129_AllocatorDestroyRangeReverseINS_9allocatorINS_4pairIicEEEENS_16reverse_iteratorIPS3_EEEC2B7v160006ERS4_RS7_SA_, symObjAddr: 0xECFC, symBinAddr: 0x1000125CC, symSize: 0x38 }
  - { offsetInCU: 0x2B5D2, offset: 0x2B5D2, size: 0x8, addend: 0x0, symName: __ZNSt3__119__to_address_helperINS_16reverse_iteratorIPNS_4pairIicEEEEvE6__callB7v160006ERKS5_, symObjAddr: 0xED34, symBinAddr: 0x100012604, symSize: 0x38 }
  - { offsetInCU: 0x2B5F5, offset: 0x2B5F5, size: 0x8, addend: 0x0, symName: __ZNKSt3__116reverse_iteratorIPNS_4pairIicEEEptB7v160006Ev, symObjAddr: 0xED6C, symBinAddr: 0x10001263C, symSize: 0x24 }
  - { offsetInCU: 0x2B61B, offset: 0x2B61B, size: 0x8, addend: 0x0, symName: __ZNSt3__128__exception_guard_exceptionsINS_29_AllocatorDestroyRangeReverseINS_9allocatorINS_4pairIicEEEENS_16reverse_iteratorIPS4_EEEEED2B7v160006Ev, symObjAddr: 0xED90, symBinAddr: 0x100012660, symSize: 0x50 }
  - { offsetInCU: 0x2B645, offset: 0x2B645, size: 0x8, addend: 0x0, symName: __ZNKSt3__129_AllocatorDestroyRangeReverseINS_9allocatorINS_4pairIicEEEENS_16reverse_iteratorIPS3_EEEclB7v160006Ev, symObjAddr: 0xEDE0, symBinAddr: 0x1000126B0, symSize: 0xB4 }
  - { offsetInCU: 0x2B66C, offset: 0x2B66C, size: 0x8, addend: 0x0, symName: __ZNSt3__116reverse_iteratorINS0_IPNS_4pairIicEEEEEC1B7v160006ES4_, symObjAddr: 0xEF04, symBinAddr: 0x1000127D4, symSize: 0x3C }
  - { offsetInCU: 0x2B6A4, offset: 0x2B6A4, size: 0x8, addend: 0x0, symName: __ZNSt3__116reverse_iteratorINS0_IPNS_4pairIicEEEEEppB7v160006Ev, symObjAddr: 0xEFC4, symBinAddr: 0x100012894, symSize: 0x30 }
  - { offsetInCU: 0x2B6CA, offset: 0x2B6CA, size: 0x8, addend: 0x0, symName: __ZNKSt3__116reverse_iteratorINS0_IPNS_4pairIicEEEEE4baseB7v160006Ev, symObjAddr: 0xEFF4, symBinAddr: 0x1000128C4, symSize: 0x24 }
  - { offsetInCU: 0x2B6F5, offset: 0x2B6F5, size: 0x8, addend: 0x0, symName: __ZNSt3__119__to_address_helperINS_16reverse_iteratorINS1_IPNS_4pairIicEEEEEEvE6__callB7v160006ERKS6_, symObjAddr: 0xF018, symBinAddr: 0x1000128E8, symSize: 0x38 }
  - { offsetInCU: 0x2B718, offset: 0x2B718, size: 0x8, addend: 0x0, symName: __ZNKSt3__116reverse_iteratorINS0_IPNS_4pairIicEEEEEptB7v160006Ev, symObjAddr: 0xF050, symBinAddr: 0x100012920, symSize: 0x24 }
  - { offsetInCU: 0x2B73E, offset: 0x2B73E, size: 0x8, addend: 0x0, symName: __ZNKSt3__116reverse_iteratorINS0_IPNS_4pairIicEEEEEdeB7v160006Ev, symObjAddr: 0xF074, symBinAddr: 0x100012944, symSize: 0x34 }
  - { offsetInCU: 0x2B772, offset: 0x2B772, size: 0x8, addend: 0x0, symName: __ZNSt3__116reverse_iteratorIPNS_4pairIicEEEmmB7v160006Ev, symObjAddr: 0xF0A8, symBinAddr: 0x100012978, symSize: 0x20 }
  - { offsetInCU: 0x2B798, offset: 0x2B798, size: 0x8, addend: 0x0, symName: __ZNSt3__116reverse_iteratorINS0_IPNS_4pairIicEEEEEC2B7v160006ES4_, symObjAddr: 0xF0C8, symBinAddr: 0x100012998, symSize: 0x2C }
  - { offsetInCU: 0x2B7D0, offset: 0x2B7D0, size: 0x8, addend: 0x0, symName: __ZNSt3__116reverse_iteratorIPNS_4pairIicEEEC2B7v160006ES3_, symObjAddr: 0xF0F4, symBinAddr: 0x1000129C4, symSize: 0x28 }
  - { offsetInCU: 0x2B808, offset: 0x2B808, size: 0x8, addend: 0x0, symName: __ZNSt3__114__split_bufferINS_4pairIicEERNS_9allocatorIS2_EEED2Ev, symObjAddr: 0xF11C, symBinAddr: 0x1000129EC, symSize: 0x8C }
  - { offsetInCU: 0x2B834, offset: 0x2B834, size: 0x8, addend: 0x0, symName: __ZNSt3__114__split_bufferINS_4pairIicEERNS_9allocatorIS2_EEE5clearB7v160006Ev, symObjAddr: 0xF1A8, symBinAddr: 0x100012A78, symSize: 0x28 }
  - { offsetInCU: 0x2B85A, offset: 0x2B85A, size: 0x8, addend: 0x0, symName: __ZNKSt3__114__split_bufferINS_4pairIicEERNS_9allocatorIS2_EEE8capacityB7v160006Ev, symObjAddr: 0xF1D0, symBinAddr: 0x100012AA0, symSize: 0x40 }
  - { offsetInCU: 0x2B880, offset: 0x2B880, size: 0x8, addend: 0x0, symName: __ZNSt3__114__split_bufferINS_4pairIicEERNS_9allocatorIS2_EEE17__destruct_at_endB7v160006EPS2_, symObjAddr: 0xF210, symBinAddr: 0x100012AE0, symSize: 0x2C }
  - { offsetInCU: 0x2B8B4, offset: 0x2B8B4, size: 0x8, addend: 0x0, symName: __ZNSt3__114__split_bufferINS_4pairIicEERNS_9allocatorIS2_EEE17__destruct_at_endB7v160006EPS2_NS_17integral_constantIbLb0EEE, symObjAddr: 0xF23C, symBinAddr: 0x100012B0C, symSize: 0x80 }
  - { offsetInCU: 0x2B8F4, offset: 0x2B8F4, size: 0x8, addend: 0x0, symName: __ZNKSt3__114__split_bufferINS_4pairIicEERNS_9allocatorIS2_EEE9__end_capB7v160006Ev, symObjAddr: 0xF2BC, symBinAddr: 0x100012B8C, symSize: 0x28 }
  - { offsetInCU: 0x2B91A, offset: 0x2B91A, size: 0x8, addend: 0x0, symName: __ZNKSt3__117__compressed_pairIPNS_4pairIicEERNS_9allocatorIS2_EEE5firstB7v160006Ev, symObjAddr: 0xF2E4, symBinAddr: 0x100012BB4, symSize: 0x24 }
  - { offsetInCU: 0x2B940, offset: 0x2B940, size: 0x8, addend: 0x0, symName: __ZNKSt3__111__wrap_iterIPNS_4pairIicEEE4baseB7v160006Ev, symObjAddr: 0xF508, symBinAddr: 0x100012DD8, symSize: 0x18 }
  - { offsetInCU: 0x2B966, offset: 0x2B966, size: 0x8, addend: 0x0, symName: __ZNKSt3__111__wrap_iterIPNS_4pairIicEEEplB7v160006El, symObjAddr: 0xF520, symBinAddr: 0x100012DF0, symSize: 0x3C }
  - { offsetInCU: 0x2B9A8, offset: 0x2B9A8, size: 0x8, addend: 0x0, symName: __ZNKSt3__17greaterINS_4pairIicEEEclB7v160006ERKS2_S5_, symObjAddr: 0xF55C, symBinAddr: 0x100012E2C, symSize: 0x34 }
  - { offsetInCU: 0x2B9EC, offset: 0x2B9EC, size: 0x8, addend: 0x0, symName: __ZNKSt3__111__wrap_iterIPNS_4pairIicEEEdeB7v160006Ev, symObjAddr: 0xF590, symBinAddr: 0x100012E60, symSize: 0x18 }
  - { offsetInCU: 0x2BA12, offset: 0x2BA12, size: 0x8, addend: 0x0, symName: __ZNSt3__111__wrap_iterIPNS_4pairIicEEEmmB7v160006Ev, symObjAddr: 0xF5A8, symBinAddr: 0x100012E78, symSize: 0x20 }
  - { offsetInCU: 0x2BA38, offset: 0x2BA38, size: 0x8, addend: 0x0, symName: __ZNSt3__18_IterOpsINS_17_ClassicAlgPolicyEE11__iter_moveB7v160006IRNS_11__wrap_iterIPNS_4pairIicEEEEEENS_9enable_ifIXsr12is_referenceIDTdeclsr3stdE7declvalIRT_EEEEE5valueEDTclsr3stdE4movedeclsr3stdE7declvalISC_EEEEE4typeEOSB_, symObjAddr: 0xF5C8, symBinAddr: 0x100012E98, symSize: 0x28 }
  - { offsetInCU: 0x2BA64, offset: 0x2BA64, size: 0x8, addend: 0x0, symName: __ZNSt3__14pairIicEaSB7v160006EOS1_, symObjAddr: 0xF5F0, symBinAddr: 0x100012EC0, symSize: 0x30 }
  - { offsetInCU: 0x2BA99, offset: 0x2BA99, size: 0x8, addend: 0x0, symName: __ZNSt3__111__wrap_iterIPNS_4pairIicEEEpLB7v160006El, symObjAddr: 0xF620, symBinAddr: 0x100012EF0, symSize: 0x28 }
  - { offsetInCU: 0x2BACD, offset: 0x2BACD, size: 0x8, addend: 0x0, symName: __ZNSt3__18_IterOpsINS_17_ClassicAlgPolicyEE25__validate_iter_referenceB7v160006IRNS_11__wrap_iterIPNS_4pairIicEEEEEEvv, symObjAddr: 0xF710, symBinAddr: 0x100012FE0, symSize: 0x4 }
  - { offsetInCU: 0x2BAEB, offset: 0x2BAEB, size: 0x8, addend: 0x0, symName: __ZNSt3__16vectorINS_4pairIicEENS_9allocatorIS2_EEE11__make_iterB7v160006EPS2_, symObjAddr: 0xF714, symBinAddr: 0x100012FE4, symSize: 0x34 }
  - { offsetInCU: 0x2BB20, offset: 0x2BB20, size: 0x8, addend: 0x0, symName: __ZNSt3__111__wrap_iterIPNS_4pairIicEEEC1B7v160006EPKvS3_, symObjAddr: 0xF748, symBinAddr: 0x100013018, symSize: 0x3C }
  - { offsetInCU: 0x2BB66, offset: 0x2BB66, size: 0x8, addend: 0x0, symName: __ZNSt3__111__wrap_iterIPNS_4pairIicEEEC2B7v160006EPKvS3_, symObjAddr: 0xF784, symBinAddr: 0x100013054, symSize: 0x24 }
  - { offsetInCU: 0x2BBAC, offset: 0x2BBAC, size: 0x8, addend: 0x0, symName: __ZNKSt3__16vectorINS_4pairIicEENS_9allocatorIS2_EEE5emptyB7v160006Ev, symObjAddr: 0xF7A8, symBinAddr: 0x100013078, symSize: 0x28 }
  - { offsetInCU: 0x2BBD2, offset: 0x2BBD2, size: 0x8, addend: 0x0, symName: __ZNKSt3__16vectorINS_4pairIicEENS_9allocatorIS2_EEE5frontB7v160006Ev, symObjAddr: 0xF7D0, symBinAddr: 0x1000130A0, symSize: 0x18 }
  - { offsetInCU: 0x2BBF8, offset: 0x2BBF8, size: 0x8, addend: 0x0, symName: __ZNSt3__16vectorINS_4pairIicEENS_9allocatorIS2_EEE8pop_backEv, symObjAddr: 0xF840, symBinAddr: 0x100013110, symSize: 0x2C }
  - { offsetInCU: 0x2BC20, offset: 0x2BC20, size: 0x8, addend: 0x0, symName: __ZNSt3__111__wrap_iterIPNS_4pairIicEEEppB7v160006Ev, symObjAddr: 0xFB24, symBinAddr: 0x1000133F4, symSize: 0x20 }
  - { offsetInCU: 0x2BC46, offset: 0x2BC46, size: 0x8, addend: 0x0, symName: __ZNSt3__16vectorINS_4pairIicEENS_9allocatorIS2_EEE17__destruct_at_endB7v160006EPS2_, symObjAddr: 0xFB44, symBinAddr: 0x100013414, symSize: 0x60 }
  - { offsetInCU: 0x2BC8A, offset: 0x2BC8A, size: 0x8, addend: 0x0, symName: __ZNSt3__16vectorINS_4pairIicEENS_9allocatorIS2_EEE27__invalidate_iterators_pastB7v160006EPS2_, symObjAddr: 0xFBA4, symBinAddr: 0x100013474, symSize: 0x14 }
  - { offsetInCU: 0x2BCC1, offset: 0x2BCC1, size: 0x8, addend: 0x0, symName: __ZNKSt3__16vectorINS_4pairIicEENS_9allocatorIS2_EEE17__annotate_shrinkB7v160006Em, symObjAddr: 0xFBB8, symBinAddr: 0x100013488, symSize: 0xB4 }
  - { offsetInCU: 0x2BCF6, offset: 0x2BCF6, size: 0x8, addend: 0x0, symName: __ZNKSt3__16__treeINS_12__value_typeIcP7adjNodeEENS_19__map_value_compareIcS4_NS_4lessIcEELb1EEENS_9allocatorIS4_EEE12__find_equalB7v160006IcEERPNS_16__tree_node_baseIPvEERPNS_15__tree_end_nodeISG_EERKT_, symObjAddr: 0xFC6C, symBinAddr: 0x10001353C, symSize: 0x34 }
  - { offsetInCU: 0x2BD43, offset: 0x2BD43, size: 0x8, addend: 0x0, symName: __ZNSt12out_of_rangeC1B7v160006EPKc, symObjAddr: 0xFD04, symBinAddr: 0x1000135D4, symSize: 0x34 }
  - { offsetInCU: 0x2BD7B, offset: 0x2BD7B, size: 0x8, addend: 0x0, symName: __ZNSt12out_of_rangeC2B7v160006EPKc, symObjAddr: 0xFD38, symBinAddr: 0x100013608, symSize: 0x4C }
  - { offsetInCU: 0x2BDB3, offset: 0x2BDB3, size: 0x8, addend: 0x0, symName: __ZNSt3__16vectorIiNS_9allocatorIiEEEC2B7v160006Ev, symObjAddr: 0xFD84, symBinAddr: 0x100013654, symSize: 0x58 }
  - { offsetInCU: 0x2BDDD, offset: 0x2BDDD, size: 0x8, addend: 0x0, symName: __ZNSt3__117__compressed_pairIPiNS_9allocatorIiEEEC1B7v160006IDnNS_18__default_init_tagEEEOT_OT0_, symObjAddr: 0xFDDC, symBinAddr: 0x1000136AC, symSize: 0x3C }
  - { offsetInCU: 0x2BE35, offset: 0x2BE35, size: 0x8, addend: 0x0, symName: __ZNSt3__117__compressed_pairIPiNS_9allocatorIiEEEC2B7v160006IDnNS_18__default_init_tagEEEOT_OT0_, symObjAddr: 0xFE28, symBinAddr: 0x1000136F8, symSize: 0x40 }
  - { offsetInCU: 0x2BE8D, offset: 0x2BE8D, size: 0x8, addend: 0x0, symName: __ZNSt3__122__compressed_pair_elemIPiLi0ELb0EEC2B7v160006IDnvEEOT_, symObjAddr: 0xFE68, symBinAddr: 0x100013738, symSize: 0x1C }
  - { offsetInCU: 0x2BECF, offset: 0x2BECF, size: 0x8, addend: 0x0, symName: __ZNSt3__122__compressed_pair_elemINS_9allocatorIiEELi1ELb1EEC2B7v160006ENS_18__default_init_tagE, symObjAddr: 0xFE84, symBinAddr: 0x100013754, symSize: 0x2C }
  - { offsetInCU: 0x2BF03, offset: 0x2BF03, size: 0x8, addend: 0x0, symName: __ZNSt3__19allocatorIiEC2B7v160006Ev, symObjAddr: 0xFEB0, symBinAddr: 0x100013780, symSize: 0x2C }
  - { offsetInCU: 0x2BF2D, offset: 0x2BF2D, size: 0x8, addend: 0x0, symName: __ZNSt3__116__non_trivial_ifILb1ENS_9allocatorIiEEEC2B7v160006Ev, symObjAddr: 0xFEDC, symBinAddr: 0x1000137AC, symSize: 0x14 }
  - { offsetInCU: 0x2BF57, offset: 0x2BF57, size: 0x8, addend: 0x0, symName: __ZNSt3__16vectorIiNS_9allocatorIiEEED2B7v160006Ev, symObjAddr: 0xFEF0, symBinAddr: 0x1000137C0, symSize: 0x44 }
  - { offsetInCU: 0x2BF81, offset: 0x2BF81, size: 0x8, addend: 0x0, symName: __ZNSt3__16vectorIiNS_9allocatorIiEEE16__destroy_vectorC1ERS3_, symObjAddr: 0xFF34, symBinAddr: 0x100013804, symSize: 0x34 }
  - { offsetInCU: 0x2BFBA, offset: 0x2BFBA, size: 0x8, addend: 0x0, symName: __ZNSt3__16vectorIiNS_9allocatorIiEEE16__destroy_vectorclB7v160006Ev, symObjAddr: 0xFF68, symBinAddr: 0x100013838, symSize: 0x9C }
  - { offsetInCU: 0x2BFE0, offset: 0x2BFE0, size: 0x8, addend: 0x0, symName: __ZNSt3__16vectorIiNS_9allocatorIiEEE16__destroy_vectorC2ERS3_, symObjAddr: 0x10004, symBinAddr: 0x1000138D4, symSize: 0x20 }
  - { offsetInCU: 0x2C019, offset: 0x2C019, size: 0x8, addend: 0x0, symName: __ZNKSt3__16vectorIiNS_9allocatorIiEEE17__annotate_deleteB7v160006Ev, symObjAddr: 0x10024, symBinAddr: 0x1000138F4, symSize: 0xB8 }
  - { offsetInCU: 0x2C03F, offset: 0x2C03F, size: 0x8, addend: 0x0, symName: __ZNSt3__16vectorIiNS_9allocatorIiEEE7__clearB7v160006Ev, symObjAddr: 0x100EC, symBinAddr: 0x1000139BC, symSize: 0x28 }
  - { offsetInCU: 0x2C065, offset: 0x2C065, size: 0x8, addend: 0x0, symName: __ZNSt3__116allocator_traitsINS_9allocatorIiEEE10deallocateB7v160006ERS2_Pim, symObjAddr: 0x10114, symBinAddr: 0x1000139E4, symSize: 0x34 }
  - { offsetInCU: 0x2C0A7, offset: 0x2C0A7, size: 0x8, addend: 0x0, symName: __ZNSt3__16vectorIiNS_9allocatorIiEEE7__allocB7v160006Ev, symObjAddr: 0x10148, symBinAddr: 0x100013A18, symSize: 0x28 }
  - { offsetInCU: 0x2C0CD, offset: 0x2C0CD, size: 0x8, addend: 0x0, symName: __ZNKSt3__16vectorIiNS_9allocatorIiEEE8capacityB7v160006Ev, symObjAddr: 0x10170, symBinAddr: 0x100013A40, symSize: 0x40 }
  - { offsetInCU: 0x2C0F3, offset: 0x2C0F3, size: 0x8, addend: 0x0, symName: __ZNKSt3__16vectorIiNS_9allocatorIiEEE31__annotate_contiguous_containerB7v160006EPKvS5_S5_S5_, symObjAddr: 0x101B0, symBinAddr: 0x100013A80, symSize: 0x20 }
  - { offsetInCU: 0x2C145, offset: 0x2C145, size: 0x8, addend: 0x0, symName: __ZNKSt3__16vectorIiNS_9allocatorIiEEE4dataB7v160006Ev, symObjAddr: 0x101D0, symBinAddr: 0x100013AA0, symSize: 0x28 }
  - { offsetInCU: 0x2C16B, offset: 0x2C16B, size: 0x8, addend: 0x0, symName: __ZNSt3__16vectorIiNS_9allocatorIiEEE22__base_destruct_at_endB7v160006EPi, symObjAddr: 0x1020C, symBinAddr: 0x100013ADC, symSize: 0x8C }
  - { offsetInCU: 0x2C1AF, offset: 0x2C1AF, size: 0x8, addend: 0x0, symName: __ZNSt3__116allocator_traitsINS_9allocatorIiEEE7destroyB7v160006IivEEvRS2_PT_, symObjAddr: 0x10298, symBinAddr: 0x100013B68, symSize: 0x2C }
  - { offsetInCU: 0x2C1EC, offset: 0x2C1EC, size: 0x8, addend: 0x0, symName: __ZNSt3__19allocatorIiE7destroyB7v160006EPi, symObjAddr: 0x102C4, symBinAddr: 0x100013B94, symSize: 0x14 }
  - { offsetInCU: 0x2C220, offset: 0x2C220, size: 0x8, addend: 0x0, symName: __ZNSt3__19allocatorIiE10deallocateB7v160006EPim, symObjAddr: 0x102D8, symBinAddr: 0x100013BA8, symSize: 0x40 }
  - { offsetInCU: 0x2C262, offset: 0x2C262, size: 0x8, addend: 0x0, symName: __ZNSt3__117__compressed_pairIPiNS_9allocatorIiEEE6secondB7v160006Ev, symObjAddr: 0x10318, symBinAddr: 0x100013BE8, symSize: 0x24 }
  - { offsetInCU: 0x2C288, offset: 0x2C288, size: 0x8, addend: 0x0, symName: __ZNSt3__122__compressed_pair_elemINS_9allocatorIiEELi1ELb1EE5__getB7v160006Ev, symObjAddr: 0x1033C, symBinAddr: 0x100013C0C, symSize: 0x14 }
  - { offsetInCU: 0x2C2AE, offset: 0x2C2AE, size: 0x8, addend: 0x0, symName: __ZNKSt3__16vectorIiNS_9allocatorIiEEE9__end_capB7v160006Ev, symObjAddr: 0x10350, symBinAddr: 0x100013C20, symSize: 0x28 }
  - { offsetInCU: 0x2C2D4, offset: 0x2C2D4, size: 0x8, addend: 0x0, symName: __ZNKSt3__117__compressed_pairIPiNS_9allocatorIiEEE5firstB7v160006Ev, symObjAddr: 0x10378, symBinAddr: 0x100013C48, symSize: 0x24 }
  - { offsetInCU: 0x2C2FA, offset: 0x2C2FA, size: 0x8, addend: 0x0, symName: __ZNKSt3__122__compressed_pair_elemIPiLi0ELb0EE5__getB7v160006Ev, symObjAddr: 0x1039C, symBinAddr: 0x100013C6C, symSize: 0x14 }
  - { offsetInCU: 0x2C320, offset: 0x2C320, size: 0x8, addend: 0x0, symName: __ZNSt3__16__treeINS_12__value_typeIciEENS_19__map_value_compareIcS2_NS_4lessIcEELb1EEENS_9allocatorIS2_EEE5beginB7v160006Ev, symObjAddr: 0x103B0, symBinAddr: 0x100013C80, symSize: 0x34 }
  - { offsetInCU: 0x2C346, offset: 0x2C346, size: 0x8, addend: 0x0, symName: __ZNSt3__114__map_iteratorINS_15__tree_iteratorINS_12__value_typeIciEEPNS_11__tree_nodeIS3_PvEElEEEC1B7v160006ES8_, symObjAddr: 0x103E4, symBinAddr: 0x100013CB4, symSize: 0x34 }
  - { offsetInCU: 0x2C37F, offset: 0x2C37F, size: 0x8, addend: 0x0, symName: __ZNSt3__115__tree_iteratorINS_12__value_typeIciEEPNS_11__tree_nodeIS2_PvEElEC1B7v160006EPNS_15__tree_end_nodeIPNS_16__tree_node_baseIS4_EEEE, symObjAddr: 0x10418, symBinAddr: 0x100013CE8, symSize: 0x34 }
  - { offsetInCU: 0x2C3B8, offset: 0x2C3B8, size: 0x8, addend: 0x0, symName: __ZNSt3__115__tree_iteratorINS_12__value_typeIciEEPNS_11__tree_nodeIS2_PvEElEC2B7v160006EPNS_15__tree_end_nodeIPNS_16__tree_node_baseIS4_EEEE, symObjAddr: 0x1044C, symBinAddr: 0x100013D1C, symSize: 0x20 }
  - { offsetInCU: 0x2C3F1, offset: 0x2C3F1, size: 0x8, addend: 0x0, symName: __ZNSt3__114__map_iteratorINS_15__tree_iteratorINS_12__value_typeIciEEPNS_11__tree_nodeIS3_PvEElEEEC2B7v160006ES8_, symObjAddr: 0x1046C, symBinAddr: 0x100013D3C, symSize: 0x20 }
  - { offsetInCU: 0x2C42A, offset: 0x2C42A, size: 0x8, addend: 0x0, symName: __ZNSt3__16__treeINS_12__value_typeIciEENS_19__map_value_compareIcS2_NS_4lessIcEELb1EEENS_9allocatorIS2_EEE3endB7v160006Ev, symObjAddr: 0x1048C, symBinAddr: 0x100013D5C, symSize: 0x34 }
  - { offsetInCU: 0x2C450, offset: 0x2C450, size: 0x8, addend: 0x0, symName: __ZNSt3__115__tree_iteratorINS_12__value_typeIciEEPNS_11__tree_nodeIS2_PvEElEppB7v160006Ev, symObjAddr: 0x104F4, symBinAddr: 0x100013DC4, symSize: 0x38 }
  - { offsetInCU: 0x2C476, offset: 0x2C476, size: 0x8, addend: 0x0, symName: __ZNSt3__16vectorIiNS_9allocatorIiEEE9__end_capB7v160006Ev, symObjAddr: 0x1052C, symBinAddr: 0x100013DFC, symSize: 0x28 }
  - { offsetInCU: 0x2C49C, offset: 0x2C49C, size: 0x8, addend: 0x0, symName: __ZNSt3__16vectorIiNS_9allocatorIiEEE22__construct_one_at_endB7v160006IJRKiEEEvDpOT_, symObjAddr: 0x10554, symBinAddr: 0x100013E24, symSize: 0x90 }
  - { offsetInCU: 0x2C4EB, offset: 0x2C4EB, size: 0x8, addend: 0x0, symName: __ZNSt3__16vectorIiNS_9allocatorIiEEE21__push_back_slow_pathIRKiEEvOT_, symObjAddr: 0x105E4, symBinAddr: 0x100013EB4, symSize: 0xD8 }
  - { offsetInCU: 0x2C549, offset: 0x2C549, size: 0x8, addend: 0x0, symName: __ZNSt3__117__compressed_pairIPiNS_9allocatorIiEEE5firstB7v160006Ev, symObjAddr: 0x106BC, symBinAddr: 0x100013F8C, symSize: 0x24 }
  - { offsetInCU: 0x2C56F, offset: 0x2C56F, size: 0x8, addend: 0x0, symName: __ZNSt3__122__compressed_pair_elemIPiLi0ELb0EE5__getB7v160006Ev, symObjAddr: 0x106E0, symBinAddr: 0x100013FB0, symSize: 0x14 }
  - { offsetInCU: 0x2C5AE, offset: 0x2C5AE, size: 0x8, addend: 0x0, symName: __ZNSt3__16vectorIiNS_9allocatorIiEEE21_ConstructTransactionC1B7v160006ERS3_m, symObjAddr: 0x106F4, symBinAddr: 0x100013FC4, symSize: 0x3C }
  - { offsetInCU: 0x2C5F6, offset: 0x2C5F6, size: 0x8, addend: 0x0, symName: __ZNSt3__116allocator_traitsINS_9allocatorIiEEE9constructB7v160006IiJRKiEvEEvRS2_PT_DpOT0_, symObjAddr: 0x10730, symBinAddr: 0x100014000, symSize: 0x34 }
  - { offsetInCU: 0x2C64D, offset: 0x2C64D, size: 0x8, addend: 0x0, symName: __ZNSt3__16vectorIiNS_9allocatorIiEEE21_ConstructTransactionD1B7v160006Ev, symObjAddr: 0x10764, symBinAddr: 0x100014034, symSize: 0x2C }
  - { offsetInCU: 0x2C677, offset: 0x2C677, size: 0x8, addend: 0x0, symName: __ZNSt3__16vectorIiNS_9allocatorIiEEE21_ConstructTransactionC2B7v160006ERS3_m, symObjAddr: 0x10790, symBinAddr: 0x100014060, symSize: 0x44 }
  - { offsetInCU: 0x2C6BF, offset: 0x2C6BF, size: 0x8, addend: 0x0, symName: __ZNSt3__19allocatorIiE9constructB7v160006IiJRKiEEEvPT_DpOT0_, symObjAddr: 0x107D4, symBinAddr: 0x1000140A4, symSize: 0x28 }
  - { offsetInCU: 0x2C715, offset: 0x2C715, size: 0x8, addend: 0x0, symName: __ZNSt3__16vectorIiNS_9allocatorIiEEE21_ConstructTransactionD2B7v160006Ev, symObjAddr: 0x107FC, symBinAddr: 0x1000140CC, symSize: 0x20 }
  - { offsetInCU: 0x2C73F, offset: 0x2C73F, size: 0x8, addend: 0x0, symName: __ZNKSt3__16vectorIiNS_9allocatorIiEEE11__recommendB7v160006Em, symObjAddr: 0x1081C, symBinAddr: 0x1000140EC, symSize: 0xB4 }
  - { offsetInCU: 0x2C794, offset: 0x2C794, size: 0x8, addend: 0x0, symName: __ZNSt3__114__split_bufferIiRNS_9allocatorIiEEEC1EmmS3_, symObjAddr: 0x108D0, symBinAddr: 0x1000141A0, symSize: 0x44 }
  - { offsetInCU: 0x2C7EA, offset: 0x2C7EA, size: 0x8, addend: 0x0, symName: __ZNSt3__114__split_bufferIiRNS_9allocatorIiEEED1Ev, symObjAddr: 0x10A2C, symBinAddr: 0x1000142FC, symSize: 0x2C }
  - { offsetInCU: 0x2C816, offset: 0x2C816, size: 0x8, addend: 0x0, symName: __ZNKSt3__16vectorIiNS_9allocatorIiEEE8max_sizeEv, symObjAddr: 0x10A58, symBinAddr: 0x100014328, symSize: 0x60 }
  - { offsetInCU: 0x2C83E, offset: 0x2C83E, size: 0x8, addend: 0x0, symName: __ZNKSt3__16vectorIiNS_9allocatorIiEEE20__throw_length_errorB7v160006Ev, symObjAddr: 0x10AB8, symBinAddr: 0x100014388, symSize: 0x1C }
  - { offsetInCU: 0x2C86E, offset: 0x2C86E, size: 0x8, addend: 0x0, symName: __ZNSt3__116allocator_traitsINS_9allocatorIiEEE8max_sizeB7v160006IS2_vEEmRKS2_, symObjAddr: 0x10AD4, symBinAddr: 0x1000143A4, symSize: 0x24 }
  - { offsetInCU: 0x2C89C, offset: 0x2C89C, size: 0x8, addend: 0x0, symName: __ZNKSt3__16vectorIiNS_9allocatorIiEEE7__allocB7v160006Ev, symObjAddr: 0x10AF8, symBinAddr: 0x1000143C8, symSize: 0x28 }
  - { offsetInCU: 0x2C8C2, offset: 0x2C8C2, size: 0x8, addend: 0x0, symName: __ZNKSt3__19allocatorIiE8max_sizeB7v160006Ev, symObjAddr: 0x10B20, symBinAddr: 0x1000143F0, symSize: 0x14 }
  - { offsetInCU: 0x2C8E8, offset: 0x2C8E8, size: 0x8, addend: 0x0, symName: __ZNKSt3__117__compressed_pairIPiNS_9allocatorIiEEE6secondB7v160006Ev, symObjAddr: 0x10B34, symBinAddr: 0x100014404, symSize: 0x24 }
  - { offsetInCU: 0x2C90E, offset: 0x2C90E, size: 0x8, addend: 0x0, symName: __ZNKSt3__122__compressed_pair_elemINS_9allocatorIiEELi1ELb1EE5__getB7v160006Ev, symObjAddr: 0x10B58, symBinAddr: 0x100014428, symSize: 0x14 }
  - { offsetInCU: 0x2C934, offset: 0x2C934, size: 0x8, addend: 0x0, symName: __ZNSt3__114__split_bufferIiRNS_9allocatorIiEEEC2EmmS3_, symObjAddr: 0x10B6C, symBinAddr: 0x10001443C, symSize: 0xD4 }
  - { offsetInCU: 0x2C9A7, offset: 0x2C9A7, size: 0x8, addend: 0x0, symName: __ZNSt3__117__compressed_pairIPiRNS_9allocatorIiEEEC1B7v160006IDnS4_EEOT_OT0_, symObjAddr: 0x10C40, symBinAddr: 0x100014510, symSize: 0x3C }
  - { offsetInCU: 0x2C9FF, offset: 0x2C9FF, size: 0x8, addend: 0x0, symName: __ZNSt3__114__split_bufferIiRNS_9allocatorIiEEE7__allocB7v160006Ev, symObjAddr: 0x10CBC, symBinAddr: 0x10001458C, symSize: 0x28 }
  - { offsetInCU: 0x2CA25, offset: 0x2CA25, size: 0x8, addend: 0x0, symName: __ZNSt3__114__split_bufferIiRNS_9allocatorIiEEE9__end_capB7v160006Ev, symObjAddr: 0x10CE4, symBinAddr: 0x1000145B4, symSize: 0x28 }
  - { offsetInCU: 0x2CA4B, offset: 0x2CA4B, size: 0x8, addend: 0x0, symName: __ZNSt3__117__compressed_pairIPiRNS_9allocatorIiEEEC2B7v160006IDnS4_EEOT_OT0_, symObjAddr: 0x10D0C, symBinAddr: 0x1000145DC, symSize: 0x48 }
  - { offsetInCU: 0x2CAA3, offset: 0x2CAA3, size: 0x8, addend: 0x0, symName: __ZNSt3__122__compressed_pair_elemIRNS_9allocatorIiEELi1ELb0EEC2B7v160006IS3_vEEOT_, symObjAddr: 0x10D54, symBinAddr: 0x100014624, symSize: 0x20 }
  - { offsetInCU: 0x2CAE5, offset: 0x2CAE5, size: 0x8, addend: 0x0, symName: __ZNSt3__19allocatorIiE8allocateB7v160006Em, symObjAddr: 0x10D74, symBinAddr: 0x100014644, symSize: 0x58 }
  - { offsetInCU: 0x2CB19, offset: 0x2CB19, size: 0x8, addend: 0x0, symName: __ZNSt3__117__compressed_pairIPiRNS_9allocatorIiEEE6secondB7v160006Ev, symObjAddr: 0x10DCC, symBinAddr: 0x10001469C, symSize: 0x28 }
  - { offsetInCU: 0x2CB3F, offset: 0x2CB3F, size: 0x8, addend: 0x0, symName: __ZNSt3__122__compressed_pair_elemIRNS_9allocatorIiEELi1ELb0EE5__getB7v160006Ev, symObjAddr: 0x10DF4, symBinAddr: 0x1000146C4, symSize: 0x18 }
  - { offsetInCU: 0x2CB65, offset: 0x2CB65, size: 0x8, addend: 0x0, symName: __ZNSt3__117__compressed_pairIPiRNS_9allocatorIiEEE5firstB7v160006Ev, symObjAddr: 0x10E0C, symBinAddr: 0x1000146DC, symSize: 0x24 }
  - { offsetInCU: 0x2CB8B, offset: 0x2CB8B, size: 0x8, addend: 0x0, symName: __ZNSt3__116reverse_iteratorIPiEC1B7v160006ES1_, symObjAddr: 0x10EA8, symBinAddr: 0x100014778, symSize: 0x34 }
  - { offsetInCU: 0x2CBC3, offset: 0x2CBC3, size: 0x8, addend: 0x0, symName: __ZNKSt3__116reverse_iteratorIPiE4baseB7v160006Ev, symObjAddr: 0x10EDC, symBinAddr: 0x1000147AC, symSize: 0x18 }
  - { offsetInCU: 0x2CBE9, offset: 0x2CBE9, size: 0x8, addend: 0x0, symName: __ZNKSt3__16vectorIiNS_9allocatorIiEEE14__annotate_newB7v160006Em, symObjAddr: 0x10F30, symBinAddr: 0x100014800, symSize: 0xAC }
  - { offsetInCU: 0x2CC37, offset: 0x2CC37, size: 0x8, addend: 0x0, symName: __ZNKSt3__111__move_loopINS_17_ClassicAlgPolicyEEclB7v160006INS_16reverse_iteratorIPiEES6_S6_EENS_4pairIT_T1_EES8_T0_S9_, symObjAddr: 0x112DC, symBinAddr: 0x100014BAC, symSize: 0xA0 }
  - { offsetInCU: 0x2CCA2, offset: 0x2CCA2, size: 0x8, addend: 0x0, symName: __ZNSt3__18_IterOpsINS_17_ClassicAlgPolicyEE11__iter_moveB7v160006IRNS_16reverse_iteratorIPiEEEENS_9enable_ifIXsr12is_referenceIDTdeclsr3stdE7declvalIRT_EEEEE5valueEDTclsr3stdE4movedeclsr3stdE7declvalISA_EEEEE4typeEOS9_, symObjAddr: 0x11510, symBinAddr: 0x100014DE0, symSize: 0x28 }
  - { offsetInCU: 0x2CCCE, offset: 0x2CCCE, size: 0x8, addend: 0x0, symName: __ZNKSt3__116reverse_iteratorIPiEdeB7v160006Ev, symObjAddr: 0x11538, symBinAddr: 0x100014E08, symSize: 0x28 }
  - { offsetInCU: 0x2CD02, offset: 0x2CD02, size: 0x8, addend: 0x0, symName: __ZNSt3__116reverse_iteratorIPiEppB7v160006Ev, symObjAddr: 0x11560, symBinAddr: 0x100014E30, symSize: 0x20 }
  - { offsetInCU: 0x2CD28, offset: 0x2CD28, size: 0x8, addend: 0x0, symName: __ZNSt3__18_IterOpsINS_17_ClassicAlgPolicyEE25__validate_iter_referenceB7v160006IRNS_16reverse_iteratorIPiEEEEvv, symObjAddr: 0x11580, symBinAddr: 0x100014E50, symSize: 0x4 }
  - { offsetInCU: 0x2CD46, offset: 0x2CD46, size: 0x8, addend: 0x0, symName: __ZNSt3__118__unwrap_iter_implINS_16reverse_iteratorIPiEELb0EE8__unwrapB7v160006ES3_, symObjAddr: 0x11584, symBinAddr: 0x100014E54, symSize: 0x24 }
  - { offsetInCU: 0x2CD6E, offset: 0x2CD6E, size: 0x8, addend: 0x0, symName: __ZNSt3__14pairINS_16reverse_iteratorIPiEES3_EC1B7v160006IS3_S3_LPv0EEEOT_OT0_, symObjAddr: 0x115A8, symBinAddr: 0x100014E78, symSize: 0x3C }
  - { offsetInCU: 0x2CDCC, offset: 0x2CDCC, size: 0x8, addend: 0x0, symName: __ZNSt3__14pairINS_16reverse_iteratorIPiEES3_EC2B7v160006IS3_S3_LPv0EEEOT_OT0_, symObjAddr: 0x115E4, symBinAddr: 0x100014EB4, symSize: 0x34 }
  - { offsetInCU: 0x2CE2A, offset: 0x2CE2A, size: 0x8, addend: 0x0, symName: __ZNSt3__118__unwrap_iter_implINS_16reverse_iteratorIPiEELb0EE8__rewrapB7v160006ES3_S3_, symObjAddr: 0x11618, symBinAddr: 0x100014EE8, symSize: 0x2C }
  - { offsetInCU: 0x2CE57, offset: 0x2CE57, size: 0x8, addend: 0x0, symName: __ZNSt3__116reverse_iteratorIPiEC2B7v160006ES1_, symObjAddr: 0x11644, symBinAddr: 0x100014F14, symSize: 0x28 }
  - { offsetInCU: 0x2CE8F, offset: 0x2CE8F, size: 0x8, addend: 0x0, symName: __ZNSt3__114__split_bufferIiRNS_9allocatorIiEEED2Ev, symObjAddr: 0x1166C, symBinAddr: 0x100014F3C, symSize: 0x8C }
  - { offsetInCU: 0x2CEBB, offset: 0x2CEBB, size: 0x8, addend: 0x0, symName: __ZNSt3__114__split_bufferIiRNS_9allocatorIiEEE5clearB7v160006Ev, symObjAddr: 0x116F8, symBinAddr: 0x100014FC8, symSize: 0x28 }
  - { offsetInCU: 0x2CEE1, offset: 0x2CEE1, size: 0x8, addend: 0x0, symName: __ZNKSt3__114__split_bufferIiRNS_9allocatorIiEEE8capacityB7v160006Ev, symObjAddr: 0x11720, symBinAddr: 0x100014FF0, symSize: 0x40 }
  - { offsetInCU: 0x2CF07, offset: 0x2CF07, size: 0x8, addend: 0x0, symName: __ZNSt3__114__split_bufferIiRNS_9allocatorIiEEE17__destruct_at_endB7v160006EPi, symObjAddr: 0x11760, symBinAddr: 0x100015030, symSize: 0x2C }
  - { offsetInCU: 0x2CF3B, offset: 0x2CF3B, size: 0x8, addend: 0x0, symName: __ZNSt3__114__split_bufferIiRNS_9allocatorIiEEE17__destruct_at_endB7v160006EPiNS_17integral_constantIbLb0EEE, symObjAddr: 0x1178C, symBinAddr: 0x10001505C, symSize: 0x80 }
  - { offsetInCU: 0x2CF7B, offset: 0x2CF7B, size: 0x8, addend: 0x0, symName: __ZNKSt3__114__split_bufferIiRNS_9allocatorIiEEE9__end_capB7v160006Ev, symObjAddr: 0x1180C, symBinAddr: 0x1000150DC, symSize: 0x28 }
  - { offsetInCU: 0x2CFA1, offset: 0x2CFA1, size: 0x8, addend: 0x0, symName: __ZNKSt3__117__compressed_pairIPiRNS_9allocatorIiEEE5firstB7v160006Ev, symObjAddr: 0x11834, symBinAddr: 0x100015104, symSize: 0x24 }
  - { offsetInCU: 0x2CFC7, offset: 0x2CFC7, size: 0x8, addend: 0x0, symName: __ZNSt3__16vectorINS0_IiNS_9allocatorIiEEEENS1_IS3_EEEC2B7v160006Ev, symObjAddr: 0x11858, symBinAddr: 0x100015128, symSize: 0x58 }
  - { offsetInCU: 0x2CFF1, offset: 0x2CFF1, size: 0x8, addend: 0x0, symName: __ZNSt3__117__compressed_pairIPNS_6vectorIiNS_9allocatorIiEEEENS2_IS4_EEEC1B7v160006IDnNS_18__default_init_tagEEEOT_OT0_, symObjAddr: 0x118B0, symBinAddr: 0x100015180, symSize: 0x3C }
  - { offsetInCU: 0x2D049, offset: 0x2D049, size: 0x8, addend: 0x0, symName: __ZNSt3__117__compressed_pairIPNS_6vectorIiNS_9allocatorIiEEEENS2_IS4_EEEC2B7v160006IDnNS_18__default_init_tagEEEOT_OT0_, symObjAddr: 0x118FC, symBinAddr: 0x1000151CC, symSize: 0x40 }
  - { offsetInCU: 0x2D0A1, offset: 0x2D0A1, size: 0x8, addend: 0x0, symName: __ZNSt3__122__compressed_pair_elemIPNS_6vectorIiNS_9allocatorIiEEEELi0ELb0EEC2B7v160006IDnvEEOT_, symObjAddr: 0x1193C, symBinAddr: 0x10001520C, symSize: 0x1C }
  - { offsetInCU: 0x2D0E3, offset: 0x2D0E3, size: 0x8, addend: 0x0, symName: __ZNSt3__122__compressed_pair_elemINS_9allocatorINS_6vectorIiNS1_IiEEEEEELi1ELb1EEC2B7v160006ENS_18__default_init_tagE, symObjAddr: 0x11958, symBinAddr: 0x100015228, symSize: 0x2C }
  - { offsetInCU: 0x2D117, offset: 0x2D117, size: 0x8, addend: 0x0, symName: __ZNSt3__19allocatorINS_6vectorIiNS0_IiEEEEEC2B7v160006Ev, symObjAddr: 0x11984, symBinAddr: 0x100015254, symSize: 0x2C }
  - { offsetInCU: 0x2D141, offset: 0x2D141, size: 0x8, addend: 0x0, symName: __ZNSt3__116__non_trivial_ifILb1ENS_9allocatorINS_6vectorIiNS1_IiEEEEEEEC2B7v160006Ev, symObjAddr: 0x119B0, symBinAddr: 0x100015280, symSize: 0x14 }
  - { offsetInCU: 0x2D16B, offset: 0x2D16B, size: 0x8, addend: 0x0, symName: __ZNSt3__16vectorINS0_IiNS_9allocatorIiEEEENS1_IS3_EEED2B7v160006Ev, symObjAddr: 0x119C4, symBinAddr: 0x100015294, symSize: 0x44 }
  - { offsetInCU: 0x2D195, offset: 0x2D195, size: 0x8, addend: 0x0, symName: __ZNSt3__16vectorINS0_IiNS_9allocatorIiEEEENS1_IS3_EEE16__destroy_vectorC1ERS5_, symObjAddr: 0x11A08, symBinAddr: 0x1000152D8, symSize: 0x34 }
  - { offsetInCU: 0x2D1CE, offset: 0x2D1CE, size: 0x8, addend: 0x0, symName: __ZNSt3__16vectorINS0_IiNS_9allocatorIiEEEENS1_IS3_EEE16__destroy_vectorclB7v160006Ev, symObjAddr: 0x11A3C, symBinAddr: 0x10001530C, symSize: 0x9C }
  - { offsetInCU: 0x2D1F4, offset: 0x2D1F4, size: 0x8, addend: 0x0, symName: __ZNSt3__16vectorINS0_IiNS_9allocatorIiEEEENS1_IS3_EEE16__destroy_vectorC2ERS5_, symObjAddr: 0x11AD8, symBinAddr: 0x1000153A8, symSize: 0x20 }
  - { offsetInCU: 0x2D22D, offset: 0x2D22D, size: 0x8, addend: 0x0, symName: __ZNKSt3__16vectorINS0_IiNS_9allocatorIiEEEENS1_IS3_EEE17__annotate_deleteB7v160006Ev, symObjAddr: 0x11AF8, symBinAddr: 0x1000153C8, symSize: 0xD4 }
  - { offsetInCU: 0x2D253, offset: 0x2D253, size: 0x8, addend: 0x0, symName: __ZNSt3__16vectorINS0_IiNS_9allocatorIiEEEENS1_IS3_EEE7__clearB7v160006Ev, symObjAddr: 0x11BDC, symBinAddr: 0x1000154AC, symSize: 0x28 }
  - { offsetInCU: 0x2D279, offset: 0x2D279, size: 0x8, addend: 0x0, symName: __ZNSt3__116allocator_traitsINS_9allocatorINS_6vectorIiNS1_IiEEEEEEE10deallocateB7v160006ERS5_PS4_m, symObjAddr: 0x11C04, symBinAddr: 0x1000154D4, symSize: 0x34 }
  - { offsetInCU: 0x2D2BB, offset: 0x2D2BB, size: 0x8, addend: 0x0, symName: __ZNSt3__16vectorINS0_IiNS_9allocatorIiEEEENS1_IS3_EEE7__allocB7v160006Ev, symObjAddr: 0x11C38, symBinAddr: 0x100015508, symSize: 0x28 }
  - { offsetInCU: 0x2D2E1, offset: 0x2D2E1, size: 0x8, addend: 0x0, symName: __ZNKSt3__16vectorINS0_IiNS_9allocatorIiEEEENS1_IS3_EEE8capacityB7v160006Ev, symObjAddr: 0x11C60, symBinAddr: 0x100015530, symSize: 0x40 }
  - { offsetInCU: 0x2D307, offset: 0x2D307, size: 0x8, addend: 0x0, symName: __ZNKSt3__16vectorINS0_IiNS_9allocatorIiEEEENS1_IS3_EEE31__annotate_contiguous_containerB7v160006EPKvS7_S7_S7_, symObjAddr: 0x11CA0, symBinAddr: 0x100015570, symSize: 0x20 }
  - { offsetInCU: 0x2D359, offset: 0x2D359, size: 0x8, addend: 0x0, symName: __ZNKSt3__16vectorINS0_IiNS_9allocatorIiEEEENS1_IS3_EEE4dataB7v160006Ev, symObjAddr: 0x11CC0, symBinAddr: 0x100015590, symSize: 0x28 }
  - { offsetInCU: 0x2D37F, offset: 0x2D37F, size: 0x8, addend: 0x0, symName: __ZNSt3__16vectorINS0_IiNS_9allocatorIiEEEENS1_IS3_EEE22__base_destruct_at_endB7v160006EPS3_, symObjAddr: 0x11CFC, symBinAddr: 0x1000155CC, symSize: 0x8C }
  - { offsetInCU: 0x2D3C3, offset: 0x2D3C3, size: 0x8, addend: 0x0, symName: __ZNSt3__116allocator_traitsINS_9allocatorINS_6vectorIiNS1_IiEEEEEEE7destroyB7v160006IS4_vEEvRS5_PT_, symObjAddr: 0x11D88, symBinAddr: 0x100015658, symSize: 0x2C }
  - { offsetInCU: 0x2D400, offset: 0x2D400, size: 0x8, addend: 0x0, symName: __ZNSt3__19allocatorINS_6vectorIiNS0_IiEEEEE7destroyB7v160006EPS3_, symObjAddr: 0x11DB4, symBinAddr: 0x100015684, symSize: 0x28 }
  - { offsetInCU: 0x2D434, offset: 0x2D434, size: 0x8, addend: 0x0, symName: __ZNSt3__19allocatorINS_6vectorIiNS0_IiEEEEE10deallocateB7v160006EPS3_m, symObjAddr: 0x11DDC, symBinAddr: 0x1000156AC, symSize: 0x44 }
  - { offsetInCU: 0x2D476, offset: 0x2D476, size: 0x8, addend: 0x0, symName: __ZNSt3__117__compressed_pairIPNS_6vectorIiNS_9allocatorIiEEEENS2_IS4_EEE6secondB7v160006Ev, symObjAddr: 0x11E20, symBinAddr: 0x1000156F0, symSize: 0x24 }
  - { offsetInCU: 0x2D49C, offset: 0x2D49C, size: 0x8, addend: 0x0, symName: __ZNSt3__122__compressed_pair_elemINS_9allocatorINS_6vectorIiNS1_IiEEEEEELi1ELb1EE5__getB7v160006Ev, symObjAddr: 0x11E44, symBinAddr: 0x100015714, symSize: 0x14 }
  - { offsetInCU: 0x2D4C2, offset: 0x2D4C2, size: 0x8, addend: 0x0, symName: __ZNKSt3__16vectorINS0_IiNS_9allocatorIiEEEENS1_IS3_EEE9__end_capB7v160006Ev, symObjAddr: 0x11E58, symBinAddr: 0x100015728, symSize: 0x28 }
  - { offsetInCU: 0x2D4E8, offset: 0x2D4E8, size: 0x8, addend: 0x0, symName: __ZNKSt3__117__compressed_pairIPNS_6vectorIiNS_9allocatorIiEEEENS2_IS4_EEE5firstB7v160006Ev, symObjAddr: 0x11E80, symBinAddr: 0x100015750, symSize: 0x24 }
  - { offsetInCU: 0x2D50E, offset: 0x2D50E, size: 0x8, addend: 0x0, symName: __ZNKSt3__122__compressed_pair_elemIPNS_6vectorIiNS_9allocatorIiEEEELi0ELb0EE5__getB7v160006Ev, symObjAddr: 0x11EA4, symBinAddr: 0x100015774, symSize: 0x14 }
  - { offsetInCU: 0x2D534, offset: 0x2D534, size: 0x8, addend: 0x0, symName: __ZNSt3__16vectorINS0_IiNS_9allocatorIiEEEENS1_IS3_EEE9__end_capB7v160006Ev, symObjAddr: 0x11EB8, symBinAddr: 0x100015788, symSize: 0x28 }
  - { offsetInCU: 0x2D55A, offset: 0x2D55A, size: 0x8, addend: 0x0, symName: __ZNSt3__16vectorINS0_IiNS_9allocatorIiEEEENS1_IS3_EEE22__construct_one_at_endB7v160006IJRKS3_EEEvDpOT_, symObjAddr: 0x11EE0, symBinAddr: 0x1000157B0, symSize: 0x90 }
  - { offsetInCU: 0x2D5A9, offset: 0x2D5A9, size: 0x8, addend: 0x0, symName: __ZNSt3__16vectorINS0_IiNS_9allocatorIiEEEENS1_IS3_EEE21__push_back_slow_pathIRKS3_EEvOT_, symObjAddr: 0x11F70, symBinAddr: 0x100015840, symSize: 0xD8 }
  - { offsetInCU: 0x2D607, offset: 0x2D607, size: 0x8, addend: 0x0, symName: __ZNSt3__117__compressed_pairIPNS_6vectorIiNS_9allocatorIiEEEENS2_IS4_EEE5firstB7v160006Ev, symObjAddr: 0x12048, symBinAddr: 0x100015918, symSize: 0x24 }
  - { offsetInCU: 0x2D62D, offset: 0x2D62D, size: 0x8, addend: 0x0, symName: __ZNSt3__122__compressed_pair_elemIPNS_6vectorIiNS_9allocatorIiEEEELi0ELb0EE5__getB7v160006Ev, symObjAddr: 0x1206C, symBinAddr: 0x10001593C, symSize: 0x14 }
  - { offsetInCU: 0x2D66C, offset: 0x2D66C, size: 0x8, addend: 0x0, symName: __ZNSt3__16vectorINS0_IiNS_9allocatorIiEEEENS1_IS3_EEE21_ConstructTransactionC1B7v160006ERS5_m, symObjAddr: 0x12080, symBinAddr: 0x100015950, symSize: 0x3C }
  - { offsetInCU: 0x2D6B4, offset: 0x2D6B4, size: 0x8, addend: 0x0, symName: __ZNSt3__116allocator_traitsINS_9allocatorINS_6vectorIiNS1_IiEEEEEEE9constructB7v160006IS4_JRKS4_EvEEvRS5_PT_DpOT0_, symObjAddr: 0x120BC, symBinAddr: 0x10001598C, symSize: 0x34 }
  - { offsetInCU: 0x2D70B, offset: 0x2D70B, size: 0x8, addend: 0x0, symName: __ZNSt3__16vectorINS0_IiNS_9allocatorIiEEEENS1_IS3_EEE21_ConstructTransactionD1B7v160006Ev, symObjAddr: 0x120F0, symBinAddr: 0x1000159C0, symSize: 0x2C }
  - { offsetInCU: 0x2D735, offset: 0x2D735, size: 0x8, addend: 0x0, symName: __ZNSt3__16vectorINS0_IiNS_9allocatorIiEEEENS1_IS3_EEE21_ConstructTransactionC2B7v160006ERS5_m, symObjAddr: 0x1211C, symBinAddr: 0x1000159EC, symSize: 0x4C }
  - { offsetInCU: 0x2D77D, offset: 0x2D77D, size: 0x8, addend: 0x0, symName: __ZNSt3__19allocatorINS_6vectorIiNS0_IiEEEEE9constructB7v160006IS3_JRKS3_EEEvPT_DpOT0_, symObjAddr: 0x12168, symBinAddr: 0x100015A38, symSize: 0x30 }
  - { offsetInCU: 0x2D7D3, offset: 0x2D7D3, size: 0x8, addend: 0x0, symName: __ZNSt3__16vectorIiNS_9allocatorIiEEEC1ERKS3_, symObjAddr: 0x12198, symBinAddr: 0x100015A68, symSize: 0x34 }
  - { offsetInCU: 0x2D80E, offset: 0x2D80E, size: 0x8, addend: 0x0, symName: __ZNSt3__16vectorIiNS_9allocatorIiEEEC2ERKS3_, symObjAddr: 0x121CC, symBinAddr: 0x100015A9C, symSize: 0x110 }
  - { offsetInCU: 0x2D86D, offset: 0x2D86D, size: 0x8, addend: 0x0, symName: __ZNSt3__116allocator_traitsINS_9allocatorIiEEE37select_on_container_copy_constructionB7v160006IS2_vvEES2_RKS2_, symObjAddr: 0x122DC, symBinAddr: 0x100015BAC, symSize: 0x10 }
  - { offsetInCU: 0x2D8A1, offset: 0x2D8A1, size: 0x8, addend: 0x0, symName: __ZNSt3__117__compressed_pairIPiNS_9allocatorIiEEEC1B7v160006IDnS3_EEOT_OT0_, symObjAddr: 0x122EC, symBinAddr: 0x100015BBC, symSize: 0x3C }
  - { offsetInCU: 0x2D8F9, offset: 0x2D8F9, size: 0x8, addend: 0x0, symName: __ZNSt3__16vectorIiNS_9allocatorIiEEE11__vallocateB7v160006Em, symObjAddr: 0x12368, symBinAddr: 0x100015C38, symSize: 0xAC }
  - { offsetInCU: 0x2D93D, offset: 0x2D93D, size: 0x8, addend: 0x0, symName: __ZNSt3__16vectorIiNS_9allocatorIiEEE18__construct_at_endIPiLi0EEEvT_S6_m, symObjAddr: 0x12414, symBinAddr: 0x100015CE4, symSize: 0x8C }
  - { offsetInCU: 0x2D9B0, offset: 0x2D9B0, size: 0x8, addend: 0x0, symName: __ZNSt3__128__exception_guard_exceptionsINS_6vectorIiNS_9allocatorIiEEE16__destroy_vectorEE10__completeB7v160006Ev, symObjAddr: 0x124A0, symBinAddr: 0x100015D70, symSize: 0x1C }
  - { offsetInCU: 0x2D9D6, offset: 0x2D9D6, size: 0x8, addend: 0x0, symName: __ZNSt3__128__exception_guard_exceptionsINS_6vectorIiNS_9allocatorIiEEE16__destroy_vectorEED1B7v160006Ev, symObjAddr: 0x124BC, symBinAddr: 0x100015D8C, symSize: 0x2C }
  - { offsetInCU: 0x2DA00, offset: 0x2DA00, size: 0x8, addend: 0x0, symName: __ZNSt3__117__compressed_pairIPiNS_9allocatorIiEEEC2B7v160006IDnS3_EEOT_OT0_, symObjAddr: 0x124E8, symBinAddr: 0x100015DB8, symSize: 0x44 }
  - { offsetInCU: 0x2DA58, offset: 0x2DA58, size: 0x8, addend: 0x0, symName: __ZNSt3__122__compressed_pair_elemINS_9allocatorIiEELi1ELb1EEC2B7v160006IS2_vEEOT_, symObjAddr: 0x1252C, symBinAddr: 0x100015DFC, symSize: 0x18 }
  - { offsetInCU: 0x2DA9A, offset: 0x2DA9A, size: 0x8, addend: 0x0, symName: __ZNSt3__128__exception_guard_exceptionsINS_6vectorIiNS_9allocatorIiEEE16__destroy_vectorEEC1B7v160006ES5_, symObjAddr: 0x12544, symBinAddr: 0x100015E14, symSize: 0x34 }
  - { offsetInCU: 0x2DAD2, offset: 0x2DAD2, size: 0x8, addend: 0x0, symName: __ZNSt3__128__exception_guard_exceptionsINS_6vectorIiNS_9allocatorIiEEE16__destroy_vectorEEC2B7v160006ES5_, symObjAddr: 0x12578, symBinAddr: 0x100015E48, symSize: 0x24 }
  - { offsetInCU: 0x2DB0A, offset: 0x2DB0A, size: 0x8, addend: 0x0, symName: __ZNSt3__129_AllocatorDestroyRangeReverseINS_9allocatorIiEEPiEC1B7v160006ERS2_RS3_S6_, symObjAddr: 0x126DC, symBinAddr: 0x100015FAC, symSize: 0x44 }
  - { offsetInCU: 0x2DB61, offset: 0x2DB61, size: 0x8, addend: 0x0, symName: __ZNSt3__116allocator_traitsINS_9allocatorIiEEE9constructB7v160006IiJRiEvEEvRS2_PT_DpOT0_, symObjAddr: 0x12720, symBinAddr: 0x100015FF0, symSize: 0x34 }
  - { offsetInCU: 0x2DBB8, offset: 0x2DBB8, size: 0x8, addend: 0x0, symName: __ZNSt3__128__exception_guard_exceptionsINS_29_AllocatorDestroyRangeReverseINS_9allocatorIiEEPiEEE10__completeB7v160006Ev, symObjAddr: 0x12754, symBinAddr: 0x100016024, symSize: 0x1C }
  - { offsetInCU: 0x2DBDE, offset: 0x2DBDE, size: 0x8, addend: 0x0, symName: __ZNSt3__128__exception_guard_exceptionsINS_29_AllocatorDestroyRangeReverseINS_9allocatorIiEEPiEEED1B7v160006Ev, symObjAddr: 0x12770, symBinAddr: 0x100016040, symSize: 0x2C }
  - { offsetInCU: 0x2DC08, offset: 0x2DC08, size: 0x8, addend: 0x0, symName: __ZNSt3__128__exception_guard_exceptionsINS_29_AllocatorDestroyRangeReverseINS_9allocatorIiEEPiEEEC1B7v160006ES5_, symObjAddr: 0x1279C, symBinAddr: 0x10001606C, symSize: 0x34 }
  - { offsetInCU: 0x2DC41, offset: 0x2DC41, size: 0x8, addend: 0x0, symName: __ZNSt3__128__exception_guard_exceptionsINS_29_AllocatorDestroyRangeReverseINS_9allocatorIiEEPiEEEC2B7v160006ES5_, symObjAddr: 0x127D0, symBinAddr: 0x1000160A0, symSize: 0x30 }
  - { offsetInCU: 0x2DC7A, offset: 0x2DC7A, size: 0x8, addend: 0x0, symName: __ZNSt3__129_AllocatorDestroyRangeReverseINS_9allocatorIiEEPiEC2B7v160006ERS2_RS3_S6_, symObjAddr: 0x12800, symBinAddr: 0x1000160D0, symSize: 0x38 }
  - { offsetInCU: 0x2DCD1, offset: 0x2DCD1, size: 0x8, addend: 0x0, symName: __ZNSt3__19allocatorIiE9constructB7v160006IiJRiEEEvPT_DpOT0_, symObjAddr: 0x12838, symBinAddr: 0x100016108, symSize: 0x28 }
  - { offsetInCU: 0x2DD27, offset: 0x2DD27, size: 0x8, addend: 0x0, symName: __ZNSt3__128__exception_guard_exceptionsINS_29_AllocatorDestroyRangeReverseINS_9allocatorIiEEPiEEED2B7v160006Ev, symObjAddr: 0x12860, symBinAddr: 0x100016130, symSize: 0x50 }
  - { offsetInCU: 0x2DD51, offset: 0x2DD51, size: 0x8, addend: 0x0, symName: __ZNKSt3__129_AllocatorDestroyRangeReverseINS_9allocatorIiEEPiEclB7v160006Ev, symObjAddr: 0x128B0, symBinAddr: 0x100016180, symSize: 0x68 }
  - { offsetInCU: 0x2DD7C, offset: 0x2DD7C, size: 0x8, addend: 0x0, symName: __ZNSt3__119__to_address_helperINS_16reverse_iteratorIPiEEvE6__callB7v160006ERKS3_, symObjAddr: 0x129AC, symBinAddr: 0x10001627C, symSize: 0x38 }
  - { offsetInCU: 0x2DD9F, offset: 0x2DD9F, size: 0x8, addend: 0x0, symName: __ZNKSt3__116reverse_iteratorIPiEptB7v160006Ev, symObjAddr: 0x129E4, symBinAddr: 0x1000162B4, symSize: 0x24 }
  - { offsetInCU: 0x2DDC5, offset: 0x2DDC5, size: 0x8, addend: 0x0, symName: __ZNSt3__128__exception_guard_exceptionsINS_6vectorIiNS_9allocatorIiEEE16__destroy_vectorEED2B7v160006Ev, symObjAddr: 0x12A08, symBinAddr: 0x1000162D8, symSize: 0x50 }
  - { offsetInCU: 0x2DDEF, offset: 0x2DDEF, size: 0x8, addend: 0x0, symName: __ZNSt3__16vectorINS0_IiNS_9allocatorIiEEEENS1_IS3_EEE21_ConstructTransactionD2B7v160006Ev, symObjAddr: 0x12A58, symBinAddr: 0x100016328, symSize: 0x20 }
  - { offsetInCU: 0x2DE19, offset: 0x2DE19, size: 0x8, addend: 0x0, symName: __ZNKSt3__16vectorINS0_IiNS_9allocatorIiEEEENS1_IS3_EEE11__recommendB7v160006Em, symObjAddr: 0x12A78, symBinAddr: 0x100016348, symSize: 0xB4 }
  - { offsetInCU: 0x2DE6E, offset: 0x2DE6E, size: 0x8, addend: 0x0, symName: __ZNSt3__114__split_bufferINS_6vectorIiNS_9allocatorIiEEEERNS2_IS4_EEEC1EmmS6_, symObjAddr: 0x12B2C, symBinAddr: 0x1000163FC, symSize: 0x44 }
  - { offsetInCU: 0x2DEC4, offset: 0x2DEC4, size: 0x8, addend: 0x0, symName: __ZNSt3__114__split_bufferINS_6vectorIiNS_9allocatorIiEEEERNS2_IS4_EEED1Ev, symObjAddr: 0x12C88, symBinAddr: 0x100016558, symSize: 0x2C }
  - { offsetInCU: 0x2DEF0, offset: 0x2DEF0, size: 0x8, addend: 0x0, symName: __ZNKSt3__16vectorINS0_IiNS_9allocatorIiEEEENS1_IS3_EEE8max_sizeEv, symObjAddr: 0x12CB4, symBinAddr: 0x100016584, symSize: 0x60 }
  - { offsetInCU: 0x2DF18, offset: 0x2DF18, size: 0x8, addend: 0x0, symName: __ZNKSt3__16vectorINS0_IiNS_9allocatorIiEEEENS1_IS3_EEE20__throw_length_errorB7v160006Ev, symObjAddr: 0x12D14, symBinAddr: 0x1000165E4, symSize: 0x1C }
  - { offsetInCU: 0x2DF48, offset: 0x2DF48, size: 0x8, addend: 0x0, symName: __ZNSt3__116allocator_traitsINS_9allocatorINS_6vectorIiNS1_IiEEEEEEE8max_sizeB7v160006IS5_vEEmRKS5_, symObjAddr: 0x12D30, symBinAddr: 0x100016600, symSize: 0x24 }
  - { offsetInCU: 0x2DF76, offset: 0x2DF76, size: 0x8, addend: 0x0, symName: __ZNKSt3__16vectorINS0_IiNS_9allocatorIiEEEENS1_IS3_EEE7__allocB7v160006Ev, symObjAddr: 0x12D54, symBinAddr: 0x100016624, symSize: 0x28 }
  - { offsetInCU: 0x2DF9C, offset: 0x2DF9C, size: 0x8, addend: 0x0, symName: __ZNKSt3__19allocatorINS_6vectorIiNS0_IiEEEEE8max_sizeB7v160006Ev, symObjAddr: 0x12D7C, symBinAddr: 0x10001664C, symSize: 0x18 }
  - { offsetInCU: 0x2DFC2, offset: 0x2DFC2, size: 0x8, addend: 0x0, symName: __ZNKSt3__117__compressed_pairIPNS_6vectorIiNS_9allocatorIiEEEENS2_IS4_EEE6secondB7v160006Ev, symObjAddr: 0x12D94, symBinAddr: 0x100016664, symSize: 0x24 }
  - { offsetInCU: 0x2DFE8, offset: 0x2DFE8, size: 0x8, addend: 0x0, symName: __ZNKSt3__122__compressed_pair_elemINS_9allocatorINS_6vectorIiNS1_IiEEEEEELi1ELb1EE5__getB7v160006Ev, symObjAddr: 0x12DB8, symBinAddr: 0x100016688, symSize: 0x14 }
  - { offsetInCU: 0x2E00E, offset: 0x2E00E, size: 0x8, addend: 0x0, symName: __ZNSt3__114__split_bufferINS_6vectorIiNS_9allocatorIiEEEERNS2_IS4_EEEC2EmmS6_, symObjAddr: 0x12DCC, symBinAddr: 0x10001669C, symSize: 0xE0 }
  - { offsetInCU: 0x2E081, offset: 0x2E081, size: 0x8, addend: 0x0, symName: __ZNSt3__117__compressed_pairIPNS_6vectorIiNS_9allocatorIiEEEERNS2_IS4_EEEC1B7v160006IDnS7_EEOT_OT0_, symObjAddr: 0x12EAC, symBinAddr: 0x10001677C, symSize: 0x3C }
  - { offsetInCU: 0x2E0D9, offset: 0x2E0D9, size: 0x8, addend: 0x0, symName: __ZNSt3__114__split_bufferINS_6vectorIiNS_9allocatorIiEEEERNS2_IS4_EEE7__allocB7v160006Ev, symObjAddr: 0x12F28, symBinAddr: 0x1000167F8, symSize: 0x28 }
  - { offsetInCU: 0x2E0FF, offset: 0x2E0FF, size: 0x8, addend: 0x0, symName: __ZNSt3__114__split_bufferINS_6vectorIiNS_9allocatorIiEEEERNS2_IS4_EEE9__end_capB7v160006Ev, symObjAddr: 0x12F50, symBinAddr: 0x100016820, symSize: 0x28 }
  - { offsetInCU: 0x2E125, offset: 0x2E125, size: 0x8, addend: 0x0, symName: __ZNSt3__117__compressed_pairIPNS_6vectorIiNS_9allocatorIiEEEERNS2_IS4_EEEC2B7v160006IDnS7_EEOT_OT0_, symObjAddr: 0x12F78, symBinAddr: 0x100016848, symSize: 0x48 }
  - { offsetInCU: 0x2E17D, offset: 0x2E17D, size: 0x8, addend: 0x0, symName: __ZNSt3__122__compressed_pair_elemIRNS_9allocatorINS_6vectorIiNS1_IiEEEEEELi1ELb0EEC2B7v160006IS6_vEEOT_, symObjAddr: 0x12FC0, symBinAddr: 0x100016890, symSize: 0x20 }
  - { offsetInCU: 0x2E1BF, offset: 0x2E1BF, size: 0x8, addend: 0x0, symName: __ZNSt3__19allocatorINS_6vectorIiNS0_IiEEEEE8allocateB7v160006Em, symObjAddr: 0x12FE0, symBinAddr: 0x1000168B0, symSize: 0x5C }
  - { offsetInCU: 0x2E1F3, offset: 0x2E1F3, size: 0x8, addend: 0x0, symName: __ZNSt3__117__compressed_pairIPNS_6vectorIiNS_9allocatorIiEEEERNS2_IS4_EEE6secondB7v160006Ev, symObjAddr: 0x1303C, symBinAddr: 0x10001690C, symSize: 0x28 }
  - { offsetInCU: 0x2E219, offset: 0x2E219, size: 0x8, addend: 0x0, symName: __ZNSt3__122__compressed_pair_elemIRNS_9allocatorINS_6vectorIiNS1_IiEEEEEELi1ELb0EE5__getB7v160006Ev, symObjAddr: 0x13064, symBinAddr: 0x100016934, symSize: 0x18 }
  - { offsetInCU: 0x2E23F, offset: 0x2E23F, size: 0x8, addend: 0x0, symName: __ZNSt3__117__compressed_pairIPNS_6vectorIiNS_9allocatorIiEEEERNS2_IS4_EEE5firstB7v160006Ev, symObjAddr: 0x1307C, symBinAddr: 0x10001694C, symSize: 0x24 }
  - { offsetInCU: 0x2E265, offset: 0x2E265, size: 0x8, addend: 0x0, symName: __ZNSt3__116reverse_iteratorIPNS_6vectorIiNS_9allocatorIiEEEEEC1B7v160006ES5_, symObjAddr: 0x131CC, symBinAddr: 0x100016A9C, symSize: 0x34 }
  - { offsetInCU: 0x2E29D, offset: 0x2E29D, size: 0x8, addend: 0x0, symName: __ZNKSt3__116reverse_iteratorIPNS_6vectorIiNS_9allocatorIiEEEEE4baseB7v160006Ev, symObjAddr: 0x13200, symBinAddr: 0x100016AD0, symSize: 0x18 }
  - { offsetInCU: 0x2E2C3, offset: 0x2E2C3, size: 0x8, addend: 0x0, symName: __ZNKSt3__16vectorINS0_IiNS_9allocatorIiEEEENS1_IS3_EEE14__annotate_newB7v160006Em, symObjAddr: 0x13254, symBinAddr: 0x100016B24, symSize: 0xC8 }
  - { offsetInCU: 0x2E2F8, offset: 0x2E2F8, size: 0x8, addend: 0x0, symName: __ZNSt3__129_AllocatorDestroyRangeReverseINS_9allocatorINS_6vectorIiNS1_IiEEEEEENS_16reverse_iteratorIPS4_EEEC1B7v160006ERS5_RS8_SB_, symObjAddr: 0x13378, symBinAddr: 0x100016C48, symSize: 0x44 }
  - { offsetInCU: 0x2E34F, offset: 0x2E34F, size: 0x8, addend: 0x0, symName: __ZNSt3__116allocator_traitsINS_9allocatorINS_6vectorIiNS1_IiEEEEEEE9constructB7v160006IS4_JS4_EvEEvRS5_PT_DpOT0_, symObjAddr: 0x13404, symBinAddr: 0x100016CD4, symSize: 0x34 }
  - { offsetInCU: 0x2E3A6, offset: 0x2E3A6, size: 0x8, addend: 0x0, symName: __ZNKSt3__116reverse_iteratorIPNS_6vectorIiNS_9allocatorIiEEEEEdeB7v160006Ev, symObjAddr: 0x1345C, symBinAddr: 0x100016D2C, symSize: 0x28 }
  - { offsetInCU: 0x2E3DA, offset: 0x2E3DA, size: 0x8, addend: 0x0, symName: __ZNSt3__116reverse_iteratorIPNS_6vectorIiNS_9allocatorIiEEEEEppB7v160006Ev, symObjAddr: 0x13484, symBinAddr: 0x100016D54, symSize: 0x20 }
  - { offsetInCU: 0x2E400, offset: 0x2E400, size: 0x8, addend: 0x0, symName: __ZNSt3__128__exception_guard_exceptionsINS_29_AllocatorDestroyRangeReverseINS_9allocatorINS_6vectorIiNS2_IiEEEEEENS_16reverse_iteratorIPS5_EEEEE10__completeB7v160006Ev, symObjAddr: 0x134A4, symBinAddr: 0x100016D74, symSize: 0x1C }
  - { offsetInCU: 0x2E426, offset: 0x2E426, size: 0x8, addend: 0x0, symName: __ZNSt3__128__exception_guard_exceptionsINS_29_AllocatorDestroyRangeReverseINS_9allocatorINS_6vectorIiNS2_IiEEEEEENS_16reverse_iteratorIPS5_EEEEED1B7v160006Ev, symObjAddr: 0x134C0, symBinAddr: 0x100016D90, symSize: 0x2C }
  - { offsetInCU: 0x2E450, offset: 0x2E450, size: 0x8, addend: 0x0, symName: __ZNSt3__128__exception_guard_exceptionsINS_29_AllocatorDestroyRangeReverseINS_9allocatorINS_6vectorIiNS2_IiEEEEEENS_16reverse_iteratorIPS5_EEEEEC1B7v160006ESA_, symObjAddr: 0x134EC, symBinAddr: 0x100016DBC, symSize: 0x34 }
  - { offsetInCU: 0x2E489, offset: 0x2E489, size: 0x8, addend: 0x0, symName: __ZNSt3__128__exception_guard_exceptionsINS_29_AllocatorDestroyRangeReverseINS_9allocatorINS_6vectorIiNS2_IiEEEEEENS_16reverse_iteratorIPS5_EEEEEC2B7v160006ESA_, symObjAddr: 0x13520, symBinAddr: 0x100016DF0, symSize: 0x30 }
  - { offsetInCU: 0x2E4C2, offset: 0x2E4C2, size: 0x8, addend: 0x0, symName: __ZNSt3__129_AllocatorDestroyRangeReverseINS_9allocatorINS_6vectorIiNS1_IiEEEEEENS_16reverse_iteratorIPS4_EEEC2B7v160006ERS5_RS8_SB_, symObjAddr: 0x13550, symBinAddr: 0x100016E20, symSize: 0x38 }
  - { offsetInCU: 0x2E519, offset: 0x2E519, size: 0x8, addend: 0x0, symName: __ZNSt3__19allocatorINS_6vectorIiNS0_IiEEEEE9constructB7v160006IS3_JS3_EEEvPT_DpOT0_, symObjAddr: 0x13588, symBinAddr: 0x100016E58, symSize: 0x30 }
  - { offsetInCU: 0x2E56F, offset: 0x2E56F, size: 0x8, addend: 0x0, symName: __ZNSt3__16vectorIiNS_9allocatorIiEEEC1B7v160006EOS3_, symObjAddr: 0x135B8, symBinAddr: 0x100016E88, symSize: 0x34 }
  - { offsetInCU: 0x2E5AA, offset: 0x2E5AA, size: 0x8, addend: 0x0, symName: __ZNSt3__16vectorIiNS_9allocatorIiEEEC2B7v160006EOS3_, symObjAddr: 0x135EC, symBinAddr: 0x100016EBC, symSize: 0xDC }
  - { offsetInCU: 0x2E5EA, offset: 0x2E5EA, size: 0x8, addend: 0x0, symName: __ZNSt3__119__to_address_helperINS_16reverse_iteratorIPNS_6vectorIiNS_9allocatorIiEEEEEEvE6__callB7v160006ERKS7_, symObjAddr: 0x136DC, symBinAddr: 0x100016FAC, symSize: 0x38 }
  - { offsetInCU: 0x2E60D, offset: 0x2E60D, size: 0x8, addend: 0x0, symName: __ZNKSt3__116reverse_iteratorIPNS_6vectorIiNS_9allocatorIiEEEEEptB7v160006Ev, symObjAddr: 0x13714, symBinAddr: 0x100016FE4, symSize: 0x24 }
  - { offsetInCU: 0x2E633, offset: 0x2E633, size: 0x8, addend: 0x0, symName: __ZNSt3__128__exception_guard_exceptionsINS_29_AllocatorDestroyRangeReverseINS_9allocatorINS_6vectorIiNS2_IiEEEEEENS_16reverse_iteratorIPS5_EEEEED2B7v160006Ev, symObjAddr: 0x13738, symBinAddr: 0x100017008, symSize: 0x50 }
  - { offsetInCU: 0x2E65D, offset: 0x2E65D, size: 0x8, addend: 0x0, symName: __ZNKSt3__129_AllocatorDestroyRangeReverseINS_9allocatorINS_6vectorIiNS1_IiEEEEEENS_16reverse_iteratorIPS4_EEEclB7v160006Ev, symObjAddr: 0x13788, symBinAddr: 0x100017058, symSize: 0xB4 }
  - { offsetInCU: 0x2E684, offset: 0x2E684, size: 0x8, addend: 0x0, symName: __ZNSt3__116reverse_iteratorINS0_IPNS_6vectorIiNS_9allocatorIiEEEEEEEC1B7v160006ES6_, symObjAddr: 0x138AC, symBinAddr: 0x10001717C, symSize: 0x3C }
  - { offsetInCU: 0x2E6BC, offset: 0x2E6BC, size: 0x8, addend: 0x0, symName: __ZNSt3__116reverse_iteratorINS0_IPNS_6vectorIiNS_9allocatorIiEEEEEEEppB7v160006Ev, symObjAddr: 0x1396C, symBinAddr: 0x10001723C, symSize: 0x30 }
  - { offsetInCU: 0x2E6E2, offset: 0x2E6E2, size: 0x8, addend: 0x0, symName: __ZNKSt3__116reverse_iteratorINS0_IPNS_6vectorIiNS_9allocatorIiEEEEEEE4baseB7v160006Ev, symObjAddr: 0x1399C, symBinAddr: 0x10001726C, symSize: 0x24 }
  - { offsetInCU: 0x2E70D, offset: 0x2E70D, size: 0x8, addend: 0x0, symName: __ZNSt3__119__to_address_helperINS_16reverse_iteratorINS1_IPNS_6vectorIiNS_9allocatorIiEEEEEEEEvE6__callB7v160006ERKS8_, symObjAddr: 0x139C0, symBinAddr: 0x100017290, symSize: 0x38 }
  - { offsetInCU: 0x2E730, offset: 0x2E730, size: 0x8, addend: 0x0, symName: __ZNKSt3__116reverse_iteratorINS0_IPNS_6vectorIiNS_9allocatorIiEEEEEEEptB7v160006Ev, symObjAddr: 0x139F8, symBinAddr: 0x1000172C8, symSize: 0x24 }
  - { offsetInCU: 0x2E756, offset: 0x2E756, size: 0x8, addend: 0x0, symName: __ZNKSt3__116reverse_iteratorINS0_IPNS_6vectorIiNS_9allocatorIiEEEEEEEdeB7v160006Ev, symObjAddr: 0x13A1C, symBinAddr: 0x1000172EC, symSize: 0x34 }
  - { offsetInCU: 0x2E78A, offset: 0x2E78A, size: 0x8, addend: 0x0, symName: __ZNSt3__116reverse_iteratorIPNS_6vectorIiNS_9allocatorIiEEEEEmmB7v160006Ev, symObjAddr: 0x13A50, symBinAddr: 0x100017320, symSize: 0x20 }
  - { offsetInCU: 0x2E7B0, offset: 0x2E7B0, size: 0x8, addend: 0x0, symName: __ZNSt3__116reverse_iteratorINS0_IPNS_6vectorIiNS_9allocatorIiEEEEEEEC2B7v160006ES6_, symObjAddr: 0x13A70, symBinAddr: 0x100017340, symSize: 0x2C }
  - { offsetInCU: 0x2E7E8, offset: 0x2E7E8, size: 0x8, addend: 0x0, symName: __ZNSt3__116reverse_iteratorIPNS_6vectorIiNS_9allocatorIiEEEEEC2B7v160006ES5_, symObjAddr: 0x13A9C, symBinAddr: 0x10001736C, symSize: 0x28 }
  - { offsetInCU: 0x2E820, offset: 0x2E820, size: 0x8, addend: 0x0, symName: __ZNSt3__114__split_bufferINS_6vectorIiNS_9allocatorIiEEEERNS2_IS4_EEED2Ev, symObjAddr: 0x13AC4, symBinAddr: 0x100017394, symSize: 0x8C }
  - { offsetInCU: 0x2E84C, offset: 0x2E84C, size: 0x8, addend: 0x0, symName: __ZNSt3__114__split_bufferINS_6vectorIiNS_9allocatorIiEEEERNS2_IS4_EEE5clearB7v160006Ev, symObjAddr: 0x13B50, symBinAddr: 0x100017420, symSize: 0x28 }
  - { offsetInCU: 0x2E872, offset: 0x2E872, size: 0x8, addend: 0x0, symName: __ZNKSt3__114__split_bufferINS_6vectorIiNS_9allocatorIiEEEERNS2_IS4_EEE8capacityB7v160006Ev, symObjAddr: 0x13B78, symBinAddr: 0x100017448, symSize: 0x40 }
  - { offsetInCU: 0x2E898, offset: 0x2E898, size: 0x8, addend: 0x0, symName: __ZNSt3__114__split_bufferINS_6vectorIiNS_9allocatorIiEEEERNS2_IS4_EEE17__destruct_at_endB7v160006EPS4_, symObjAddr: 0x13BB8, symBinAddr: 0x100017488, symSize: 0x2C }
  - { offsetInCU: 0x2E8CC, offset: 0x2E8CC, size: 0x8, addend: 0x0, symName: __ZNSt3__114__split_bufferINS_6vectorIiNS_9allocatorIiEEEERNS2_IS4_EEE17__destruct_at_endB7v160006EPS4_NS_17integral_constantIbLb0EEE, symObjAddr: 0x13BE4, symBinAddr: 0x1000174B4, symSize: 0x80 }
  - { offsetInCU: 0x2E90C, offset: 0x2E90C, size: 0x8, addend: 0x0, symName: __ZNKSt3__114__split_bufferINS_6vectorIiNS_9allocatorIiEEEERNS2_IS4_EEE9__end_capB7v160006Ev, symObjAddr: 0x13C64, symBinAddr: 0x100017534, symSize: 0x28 }
  - { offsetInCU: 0x2E932, offset: 0x2E932, size: 0x8, addend: 0x0, symName: __ZNKSt3__117__compressed_pairIPNS_6vectorIiNS_9allocatorIiEEEERNS2_IS4_EEE5firstB7v160006Ev, symObjAddr: 0x13C8C, symBinAddr: 0x10001755C, symSize: 0x24 }
  - { offsetInCU: 0x2E958, offset: 0x2E958, size: 0x8, addend: 0x0, symName: __ZNSt3__13mapIcNS_6vectorIiNS_9allocatorIiEEEENS_4lessIcEENS2_INS_4pairIKcS4_EEEEEC2B7v160006Ev, symObjAddr: 0x13CB0, symBinAddr: 0x100017580, symSize: 0x40 }
  - { offsetInCU: 0x2E982, offset: 0x2E982, size: 0x8, addend: 0x0, symName: __ZNSt3__119__map_value_compareIcNS_12__value_typeIcNS_6vectorIiNS_9allocatorIiEEEEEENS_4lessIcEELb1EEC1B7v160006ES8_, symObjAddr: 0x13CF0, symBinAddr: 0x1000175C0, symSize: 0x2C }
  - { offsetInCU: 0x2E9BB, offset: 0x2E9BB, size: 0x8, addend: 0x0, symName: __ZNSt3__16__treeINS_12__value_typeIcNS_6vectorIiNS_9allocatorIiEEEEEENS_19__map_value_compareIcS6_NS_4lessIcEELb1EEENS3_IS6_EEEC1ERKSA_, symObjAddr: 0x13D1C, symBinAddr: 0x1000175EC, symSize: 0x34 }
  - { offsetInCU: 0x2E9F6, offset: 0x2E9F6, size: 0x8, addend: 0x0, symName: __ZNSt3__119__map_value_compareIcNS_12__value_typeIcNS_6vectorIiNS_9allocatorIiEEEEEENS_4lessIcEELb1EEC2B7v160006ES8_, symObjAddr: 0x13D50, symBinAddr: 0x100017620, symSize: 0x14 }
  - { offsetInCU: 0x2EA2F, offset: 0x2EA2F, size: 0x8, addend: 0x0, symName: __ZNSt3__16__treeINS_12__value_typeIcNS_6vectorIiNS_9allocatorIiEEEEEENS_19__map_value_compareIcS6_NS_4lessIcEELb1EEENS3_IS6_EEEC2ERKSA_, symObjAddr: 0x13D64, symBinAddr: 0x100017634, symSize: 0x7C }
  - { offsetInCU: 0x2EA6A, offset: 0x2EA6A, size: 0x8, addend: 0x0, symName: __ZNSt3__117__compressed_pairINS_15__tree_end_nodeIPNS_16__tree_node_baseIPvEEEENS_9allocatorINS_11__tree_nodeINS_12__value_typeIcNS_6vectorIiNS7_IiEEEEEES3_EEEEEC1B7v160006ILb1EvEEv, symObjAddr: 0x13DE0, symBinAddr: 0x1000176B0, symSize: 0x2C }
  - { offsetInCU: 0x2EA9F, offset: 0x2EA9F, size: 0x8, addend: 0x0, symName: __ZNSt3__117__compressed_pairImNS_19__map_value_compareIcNS_12__value_typeIcNS_6vectorIiNS_9allocatorIiEEEEEENS_4lessIcEELb1EEEEC1B7v160006IiRKSA_EEOT_OT0_, symObjAddr: 0x13E0C, symBinAddr: 0x1000176DC, symSize: 0x3C }
  - { offsetInCU: 0x2EAF7, offset: 0x2EAF7, size: 0x8, addend: 0x0, symName: __ZNSt3__16__treeINS_12__value_typeIcNS_6vectorIiNS_9allocatorIiEEEEEENS_19__map_value_compareIcS6_NS_4lessIcEELb1EEENS3_IS6_EEE10__end_nodeB7v160006Ev, symObjAddr: 0x13E48, symBinAddr: 0x100017718, symSize: 0x2C }
  - { offsetInCU: 0x2EB1D, offset: 0x2EB1D, size: 0x8, addend: 0x0, symName: __ZNSt3__16__treeINS_12__value_typeIcNS_6vectorIiNS_9allocatorIiEEEEEENS_19__map_value_compareIcS6_NS_4lessIcEELb1EEENS3_IS6_EEE12__begin_nodeB7v160006Ev, symObjAddr: 0x13E74, symBinAddr: 0x100017744, symSize: 0x14 }
  - { offsetInCU: 0x2EB43, offset: 0x2EB43, size: 0x8, addend: 0x0, symName: __ZNSt3__117__compressed_pairINS_15__tree_end_nodeIPNS_16__tree_node_baseIPvEEEENS_9allocatorINS_11__tree_nodeINS_12__value_typeIcNS_6vectorIiNS7_IiEEEEEES3_EEEEEC2B7v160006ILb1EvEEv, symObjAddr: 0x13E88, symBinAddr: 0x100017758, symSize: 0x34 }
  - { offsetInCU: 0x2EB78, offset: 0x2EB78, size: 0x8, addend: 0x0, symName: __ZNSt3__122__compressed_pair_elemINS_9allocatorINS_11__tree_nodeINS_12__value_typeIcNS_6vectorIiNS1_IiEEEEEEPvEEEELi1ELb1EEC2B7v160006ENS_16__value_init_tagE, symObjAddr: 0x13EBC, symBinAddr: 0x10001778C, symSize: 0x2C }
  - { offsetInCU: 0x2EBAC, offset: 0x2EBAC, size: 0x8, addend: 0x0, symName: __ZNSt3__19allocatorINS_11__tree_nodeINS_12__value_typeIcNS_6vectorIiNS0_IiEEEEEEPvEEEC2B7v160006Ev, symObjAddr: 0x13EE8, symBinAddr: 0x1000177B8, symSize: 0x2C }
  - { offsetInCU: 0x2EBD6, offset: 0x2EBD6, size: 0x8, addend: 0x0, symName: __ZNSt3__116__non_trivial_ifILb1ENS_9allocatorINS_11__tree_nodeINS_12__value_typeIcNS_6vectorIiNS1_IiEEEEEEPvEEEEEC2B7v160006Ev, symObjAddr: 0x13F14, symBinAddr: 0x1000177E4, symSize: 0x14 }
  - { offsetInCU: 0x2EC00, offset: 0x2EC00, size: 0x8, addend: 0x0, symName: __ZNSt3__117__compressed_pairImNS_19__map_value_compareIcNS_12__value_typeIcNS_6vectorIiNS_9allocatorIiEEEEEENS_4lessIcEELb1EEEEC2B7v160006IiRKSA_EEOT_OT0_, symObjAddr: 0x13F28, symBinAddr: 0x1000177F8, symSize: 0x44 }
  - { offsetInCU: 0x2EC58, offset: 0x2EC58, size: 0x8, addend: 0x0, symName: __ZNSt3__122__compressed_pair_elemINS_19__map_value_compareIcNS_12__value_typeIcNS_6vectorIiNS_9allocatorIiEEEEEENS_4lessIcEELb1EEELi1ELb1EEC2B7v160006IRKSA_vEEOT_, symObjAddr: 0x13F6C, symBinAddr: 0x10001783C, symSize: 0x18 }
  - { offsetInCU: 0x2EC9A, offset: 0x2EC9A, size: 0x8, addend: 0x0, symName: __ZNSt3__117__compressed_pairINS_15__tree_end_nodeIPNS_16__tree_node_baseIPvEEEENS_9allocatorINS_11__tree_nodeINS_12__value_typeIcNS_6vectorIiNS7_IiEEEEEES3_EEEEE5firstB7v160006Ev, symObjAddr: 0x13F84, symBinAddr: 0x100017854, symSize: 0x24 }
  - { offsetInCU: 0x2ECC0, offset: 0x2ECC0, size: 0x8, addend: 0x0, symName: __ZNSt3__13mapIcNS_6vectorIiNS_9allocatorIiEEEENS_4lessIcEENS2_INS_4pairIKcS4_EEEEED2B7v160006Ev, symObjAddr: 0x13FA8, symBinAddr: 0x100017878, symSize: 0x2C }
  - { offsetInCU: 0x2ECEA, offset: 0x2ECEA, size: 0x8, addend: 0x0, symName: __ZNSt3__16__treeINS_12__value_typeIcNS_6vectorIiNS_9allocatorIiEEEEEENS_19__map_value_compareIcS6_NS_4lessIcEELb1EEENS3_IS6_EEED1Ev, symObjAddr: 0x13FD4, symBinAddr: 0x1000178A4, symSize: 0x2C }
  - { offsetInCU: 0x2ED16, offset: 0x2ED16, size: 0x8, addend: 0x0, symName: __ZNSt3__16__treeINS_12__value_typeIcNS_6vectorIiNS_9allocatorIiEEEEEENS_19__map_value_compareIcS6_NS_4lessIcEELb1EEENS3_IS6_EEED2Ev, symObjAddr: 0x14000, symBinAddr: 0x1000178D0, symSize: 0x38 }
  - { offsetInCU: 0x2ED42, offset: 0x2ED42, size: 0x8, addend: 0x0, symName: __ZNSt3__16__treeINS_12__value_typeIcNS_6vectorIiNS_9allocatorIiEEEEEENS_19__map_value_compareIcS6_NS_4lessIcEELb1EEENS3_IS6_EEE7destroyEPNS_11__tree_nodeIS6_PvEE, symObjAddr: 0x14038, symBinAddr: 0x100017908, symSize: 0xAC }
  - { offsetInCU: 0x2ED8E, offset: 0x2ED8E, size: 0x8, addend: 0x0, symName: __ZNKSt3__16__treeINS_12__value_typeIcNS_6vectorIiNS_9allocatorIiEEEEEENS_19__map_value_compareIcS6_NS_4lessIcEELb1EEENS3_IS6_EEE6__rootB7v160006Ev, symObjAddr: 0x140E4, symBinAddr: 0x1000179B4, symSize: 0x28 }
  - { offsetInCU: 0x2EDB4, offset: 0x2EDB4, size: 0x8, addend: 0x0, symName: __ZNSt3__16__treeINS_12__value_typeIcNS_6vectorIiNS_9allocatorIiEEEEEENS_19__map_value_compareIcS6_NS_4lessIcEELb1EEENS3_IS6_EEE12__node_allocB7v160006Ev, symObjAddr: 0x1410C, symBinAddr: 0x1000179DC, symSize: 0x28 }
  - { offsetInCU: 0x2EDDA, offset: 0x2EDDA, size: 0x8, addend: 0x0, symName: __ZNSt3__116allocator_traitsINS_9allocatorINS_11__tree_nodeINS_12__value_typeIcNS_6vectorIiNS1_IiEEEEEEPvEEEEE7destroyB7v160006INS_4pairIKcS6_EEvvEEvRSA_PT_, symObjAddr: 0x14134, symBinAddr: 0x100017A04, symSize: 0x28 }
  - { offsetInCU: 0x2EE14, offset: 0x2EE14, size: 0x8, addend: 0x0, symName: __ZNSt3__122__tree_key_value_typesINS_12__value_typeIcNS_6vectorIiNS_9allocatorIiEEEEEEE9__get_ptrB7v160006ERS6_, symObjAddr: 0x1415C, symBinAddr: 0x100017A2C, symSize: 0x24 }
  - { offsetInCU: 0x2EE38, offset: 0x2EE38, size: 0x8, addend: 0x0, symName: __ZNSt3__116allocator_traitsINS_9allocatorINS_11__tree_nodeINS_12__value_typeIcNS_6vectorIiNS1_IiEEEEEEPvEEEEE10deallocateB7v160006ERSA_PS9_m, symObjAddr: 0x14180, symBinAddr: 0x100017A50, symSize: 0x34 }
  - { offsetInCU: 0x2EE7A, offset: 0x2EE7A, size: 0x8, addend: 0x0, symName: __ZNSt3__117__compressed_pairINS_15__tree_end_nodeIPNS_16__tree_node_baseIPvEEEENS_9allocatorINS_11__tree_nodeINS_12__value_typeIcNS_6vectorIiNS7_IiEEEEEES3_EEEEE6secondB7v160006Ev, symObjAddr: 0x141B4, symBinAddr: 0x100017A84, symSize: 0x24 }
  - { offsetInCU: 0x2EEA0, offset: 0x2EEA0, size: 0x8, addend: 0x0, symName: __ZNSt3__122__compressed_pair_elemINS_9allocatorINS_11__tree_nodeINS_12__value_typeIcNS_6vectorIiNS1_IiEEEEEEPvEEEELi1ELb1EE5__getB7v160006Ev, symObjAddr: 0x141D8, symBinAddr: 0x100017AA8, symSize: 0x14 }
  - { offsetInCU: 0x2EEC6, offset: 0x2EEC6, size: 0x8, addend: 0x0, symName: __ZNSt3__14pairIKcNS_6vectorIiNS_9allocatorIiEEEEED1Ev, symObjAddr: 0x141EC, symBinAddr: 0x100017ABC, symSize: 0x2C }
  - { offsetInCU: 0x2EEF2, offset: 0x2EEF2, size: 0x8, addend: 0x0, symName: __ZNSt3__14pairIKcNS_6vectorIiNS_9allocatorIiEEEEED2Ev, symObjAddr: 0x14218, symBinAddr: 0x100017AE8, symSize: 0x30 }
  - { offsetInCU: 0x2EF1E, offset: 0x2EF1E, size: 0x8, addend: 0x0, symName: __ZNSt3__112__value_typeIcNS_6vectorIiNS_9allocatorIiEEEEE11__get_valueB7v160006Ev, symObjAddr: 0x14248, symBinAddr: 0x100017B18, symSize: 0x14 }
  - { offsetInCU: 0x2EF44, offset: 0x2EF44, size: 0x8, addend: 0x0, symName: __ZNSt3__19allocatorINS_11__tree_nodeINS_12__value_typeIcNS_6vectorIiNS0_IiEEEEEEPvEEE10deallocateB7v160006EPS8_m, symObjAddr: 0x1425C, symBinAddr: 0x100017B2C, symSize: 0x40 }
  - { offsetInCU: 0x2EF86, offset: 0x2EF86, size: 0x8, addend: 0x0, symName: __ZNKSt3__16__treeINS_12__value_typeIcNS_6vectorIiNS_9allocatorIiEEEEEENS_19__map_value_compareIcS6_NS_4lessIcEELb1EEENS3_IS6_EEE10__end_nodeB7v160006Ev, symObjAddr: 0x1429C, symBinAddr: 0x100017B6C, symSize: 0x2C }
  - { offsetInCU: 0x2EFAC, offset: 0x2EFAC, size: 0x8, addend: 0x0, symName: __ZNKSt3__117__compressed_pairINS_15__tree_end_nodeIPNS_16__tree_node_baseIPvEEEENS_9allocatorINS_11__tree_nodeINS_12__value_typeIcNS_6vectorIiNS7_IiEEEEEES3_EEEEE5firstB7v160006Ev, symObjAddr: 0x142C8, symBinAddr: 0x100017B98, symSize: 0x24 }
  - { offsetInCU: 0x2EFD2, offset: 0x2EFD2, size: 0x8, addend: 0x0, symName: __ZNSt3__16__treeINS_12__value_typeIcNS_6vectorIiNS_9allocatorIiEEEEEENS_19__map_value_compareIcS6_NS_4lessIcEELb1EEENS3_IS6_EEE25__emplace_unique_key_argsIcJRKNS_21piecewise_construct_tENS_5tupleIJRKcEEENSH_IJEEEEEENS_4pairINS_15__tree_iteratorIS6_PNS_11__tree_nodeIS6_PvEElEEbEERKT_DpOT0_, symObjAddr: 0x142EC, symBinAddr: 0x100017BBC, symSize: 0x100 }
  - { offsetInCU: 0x2F0A8, offset: 0x2F0A8, size: 0x8, addend: 0x0, symName: __ZNKSt3__115__tree_iteratorINS_12__value_typeIcNS_6vectorIiNS_9allocatorIiEEEEEEPNS_11__tree_nodeIS6_PvEElEptB7v160006Ev, symObjAddr: 0x143EC, symBinAddr: 0x100017CBC, symSize: 0x2C }
  - { offsetInCU: 0x2F0CE, offset: 0x2F0CE, size: 0x8, addend: 0x0, symName: __ZNSt3__16__treeINS_12__value_typeIcNS_6vectorIiNS_9allocatorIiEEEEEENS_19__map_value_compareIcS6_NS_4lessIcEELb1EEENS3_IS6_EEE12__find_equalIcEERPNS_16__tree_node_baseIPvEERPNS_15__tree_end_nodeISH_EERKT_, symObjAddr: 0x14418, symBinAddr: 0x100017CE8, symSize: 0x184 }
  - { offsetInCU: 0x2F13B, offset: 0x2F13B, size: 0x8, addend: 0x0, symName: __ZNSt3__16__treeINS_12__value_typeIcNS_6vectorIiNS_9allocatorIiEEEEEENS_19__map_value_compareIcS6_NS_4lessIcEELb1EEENS3_IS6_EEE16__construct_nodeIJRKNS_21piecewise_construct_tENS_5tupleIJRKcEEENSH_IJEEEEEENS_10unique_ptrINS_11__tree_nodeIS6_PvEENS_22__tree_node_destructorINS3_ISP_EEEEEEDpOT_, symObjAddr: 0x1459C, symBinAddr: 0x100017E6C, symSize: 0x120 }
  - { offsetInCU: 0x2F1C4, offset: 0x2F1C4, size: 0x8, addend: 0x0, symName: __ZNSt3__16__treeINS_12__value_typeIcNS_6vectorIiNS_9allocatorIiEEEEEENS_19__map_value_compareIcS6_NS_4lessIcEELb1EEENS3_IS6_EEE16__insert_node_atEPNS_15__tree_end_nodeIPNS_16__tree_node_baseIPvEEEERSH_SH_, symObjAddr: 0x146BC, symBinAddr: 0x100017F8C, symSize: 0xCC }
  - { offsetInCU: 0x2F219, offset: 0x2F219, size: 0x8, addend: 0x0, symName: __ZNKSt3__110unique_ptrINS_11__tree_nodeINS_12__value_typeIcNS_6vectorIiNS_9allocatorIiEEEEEEPvEENS_22__tree_node_destructorINS4_IS9_EEEEE3getB7v160006Ev, symObjAddr: 0x14788, symBinAddr: 0x100018058, symSize: 0x28 }
  - { offsetInCU: 0x2F23F, offset: 0x2F23F, size: 0x8, addend: 0x0, symName: __ZNSt3__110unique_ptrINS_11__tree_nodeINS_12__value_typeIcNS_6vectorIiNS_9allocatorIiEEEEEEPvEENS_22__tree_node_destructorINS4_IS9_EEEEE7releaseB7v160006Ev, symObjAddr: 0x147B0, symBinAddr: 0x100018080, symSize: 0x44 }
  - { offsetInCU: 0x2F274, offset: 0x2F274, size: 0x8, addend: 0x0, symName: __ZNSt3__110unique_ptrINS_11__tree_nodeINS_12__value_typeIcNS_6vectorIiNS_9allocatorIiEEEEEEPvEENS_22__tree_node_destructorINS4_IS9_EEEEED1B7v160006Ev, symObjAddr: 0x147F4, symBinAddr: 0x1000180C4, symSize: 0x2C }
  - { offsetInCU: 0x2F29E, offset: 0x2F29E, size: 0x8, addend: 0x0, symName: __ZNSt3__115__tree_iteratorINS_12__value_typeIcNS_6vectorIiNS_9allocatorIiEEEEEEPNS_11__tree_nodeIS6_PvEElEC1B7v160006ESA_, symObjAddr: 0x14820, symBinAddr: 0x1000180F0, symSize: 0x34 }
  - { offsetInCU: 0x2F2DC, offset: 0x2F2DC, size: 0x8, addend: 0x0, symName: __ZNSt3__14pairINS_15__tree_iteratorINS_12__value_typeIcNS_6vectorIiNS_9allocatorIiEEEEEEPNS_11__tree_nodeIS7_PvEElEEbEC1B7v160006ISC_RbLS9_0EEEOT_OT0_, symObjAddr: 0x14854, symBinAddr: 0x100018124, symSize: 0x3C }
  - { offsetInCU: 0x2F33A, offset: 0x2F33A, size: 0x8, addend: 0x0, symName: __ZNKSt3__16__treeINS_12__value_typeIcNS_6vectorIiNS_9allocatorIiEEEEEENS_19__map_value_compareIcS6_NS_4lessIcEELb1EEENS3_IS6_EEE10__root_ptrEv, symObjAddr: 0x14890, symBinAddr: 0x100018160, symSize: 0x24 }
  - { offsetInCU: 0x2F360, offset: 0x2F360, size: 0x8, addend: 0x0, symName: __ZNSt3__16__treeINS_12__value_typeIcNS_6vectorIiNS_9allocatorIiEEEEEENS_19__map_value_compareIcS6_NS_4lessIcEELb1EEENS3_IS6_EEE10value_compB7v160006Ev, symObjAddr: 0x148B4, symBinAddr: 0x100018184, symSize: 0x28 }
  - { offsetInCU: 0x2F386, offset: 0x2F386, size: 0x8, addend: 0x0, symName: __ZNKSt3__119__map_value_compareIcNS_12__value_typeIcNS_6vectorIiNS_9allocatorIiEEEEEENS_4lessIcEELb1EEclB7v160006ERKcRKS6_, symObjAddr: 0x148DC, symBinAddr: 0x1000181AC, symSize: 0x50 }
  - { offsetInCU: 0x2F3CA, offset: 0x2F3CA, size: 0x8, addend: 0x0, symName: __ZNKSt3__119__map_value_compareIcNS_12__value_typeIcNS_6vectorIiNS_9allocatorIiEEEEEENS_4lessIcEELb1EEclB7v160006ERKS6_RKc, symObjAddr: 0x1492C, symBinAddr: 0x1000181FC, symSize: 0x48 }
  - { offsetInCU: 0x2F40E, offset: 0x2F40E, size: 0x8, addend: 0x0, symName: __ZNSt3__117__compressed_pairImNS_19__map_value_compareIcNS_12__value_typeIcNS_6vectorIiNS_9allocatorIiEEEEEENS_4lessIcEELb1EEEE6secondB7v160006Ev, symObjAddr: 0x14974, symBinAddr: 0x100018244, symSize: 0x24 }
  - { offsetInCU: 0x2F434, offset: 0x2F434, size: 0x8, addend: 0x0, symName: __ZNSt3__122__compressed_pair_elemINS_19__map_value_compareIcNS_12__value_typeIcNS_6vectorIiNS_9allocatorIiEEEEEENS_4lessIcEELb1EEELi1ELb1EE5__getB7v160006Ev, symObjAddr: 0x14998, symBinAddr: 0x100018268, symSize: 0x14 }
  - { offsetInCU: 0x2F45A, offset: 0x2F45A, size: 0x8, addend: 0x0, symName: __ZNKSt3__112__value_typeIcNS_6vectorIiNS_9allocatorIiEEEEE11__get_valueB7v160006Ev, symObjAddr: 0x149AC, symBinAddr: 0x10001827C, symSize: 0x14 }
  - { offsetInCU: 0x2F480, offset: 0x2F480, size: 0x8, addend: 0x0, symName: __ZNSt3__116allocator_traitsINS_9allocatorINS_11__tree_nodeINS_12__value_typeIcNS_6vectorIiNS1_IiEEEEEEPvEEEEE8allocateB7v160006ERSA_m, symObjAddr: 0x149C0, symBinAddr: 0x100018290, symSize: 0x2C }
  - { offsetInCU: 0x2F4B3, offset: 0x2F4B3, size: 0x8, addend: 0x0, symName: __ZNSt3__122__tree_node_destructorINS_9allocatorINS_11__tree_nodeINS_12__value_typeIcNS_6vectorIiNS1_IiEEEEEEPvEEEEEC1B7v160006ERSA_b, symObjAddr: 0x149EC, symBinAddr: 0x1000182BC, symSize: 0x48 }
  - { offsetInCU: 0x2F500, offset: 0x2F500, size: 0x8, addend: 0x0, symName: __ZNSt3__110unique_ptrINS_11__tree_nodeINS_12__value_typeIcNS_6vectorIiNS_9allocatorIiEEEEEEPvEENS_22__tree_node_destructorINS4_IS9_EEEEEC1B7v160006ILb1EvEEPS9_NS_16__dependent_typeINS_27__unique_ptr_deleter_sfinaeISC_EEXT_EE20__good_rval_ref_typeE, symObjAddr: 0x14A34, symBinAddr: 0x100018304, symSize: 0x3C }
  - { offsetInCU: 0x2F551, offset: 0x2F551, size: 0x8, addend: 0x0, symName: __ZNSt3__116allocator_traitsINS_9allocatorINS_11__tree_nodeINS_12__value_typeIcNS_6vectorIiNS1_IiEEEEEEPvEEEEE9constructB7v160006INS_4pairIKcS6_EEJRKNS_21piecewise_construct_tENS_5tupleIJRSE_EEENSJ_IJEEEEvEEvRSA_PT_DpOT0_, symObjAddr: 0x14A70, symBinAddr: 0x100018340, symSize: 0x44 }
  - { offsetInCU: 0x2F5D0, offset: 0x2F5D0, size: 0x8, addend: 0x0, symName: __ZNKSt3__110unique_ptrINS_11__tree_nodeINS_12__value_typeIcNS_6vectorIiNS_9allocatorIiEEEEEEPvEENS_22__tree_node_destructorINS4_IS9_EEEEEptB7v160006Ev, symObjAddr: 0x14AB4, symBinAddr: 0x100018384, symSize: 0x28 }
  - { offsetInCU: 0x2F5F6, offset: 0x2F5F6, size: 0x8, addend: 0x0, symName: __ZNSt3__110unique_ptrINS_11__tree_nodeINS_12__value_typeIcNS_6vectorIiNS_9allocatorIiEEEEEEPvEENS_22__tree_node_destructorINS4_IS9_EEEEE11get_deleterB7v160006Ev, symObjAddr: 0x14ADC, symBinAddr: 0x1000183AC, symSize: 0x24 }
  - { offsetInCU: 0x2F61C, offset: 0x2F61C, size: 0x8, addend: 0x0, symName: __ZNSt3__19allocatorINS_11__tree_nodeINS_12__value_typeIcNS_6vectorIiNS0_IiEEEEEEPvEEE8allocateB7v160006Em, symObjAddr: 0x14B00, symBinAddr: 0x1000183D0, symSize: 0x58 }
  - { offsetInCU: 0x2F65A, offset: 0x2F65A, size: 0x8, addend: 0x0, symName: __ZNSt3__116allocator_traitsINS_9allocatorINS_11__tree_nodeINS_12__value_typeIcNS_6vectorIiNS1_IiEEEEEEPvEEEEE8max_sizeB7v160006ISA_vEEmRKSA_, symObjAddr: 0x14B58, symBinAddr: 0x100018428, symSize: 0x24 }
  - { offsetInCU: 0x2F688, offset: 0x2F688, size: 0x8, addend: 0x0, symName: __ZNKSt3__19allocatorINS_11__tree_nodeINS_12__value_typeIcNS_6vectorIiNS0_IiEEEEEEPvEEE8max_sizeB7v160006Ev, symObjAddr: 0x14B7C, symBinAddr: 0x10001844C, symSize: 0x14 }
  - { offsetInCU: 0x2F6AE, offset: 0x2F6AE, size: 0x8, addend: 0x0, symName: __ZNSt3__122__tree_node_destructorINS_9allocatorINS_11__tree_nodeINS_12__value_typeIcNS_6vectorIiNS1_IiEEEEEEPvEEEEEC2B7v160006ERSA_b, symObjAddr: 0x14B90, symBinAddr: 0x100018460, symSize: 0x38 }
  - { offsetInCU: 0x2F6F6, offset: 0x2F6F6, size: 0x8, addend: 0x0, symName: __ZNSt3__110unique_ptrINS_11__tree_nodeINS_12__value_typeIcNS_6vectorIiNS_9allocatorIiEEEEEEPvEENS_22__tree_node_destructorINS4_IS9_EEEEEC2B7v160006ILb1EvEEPS9_NS_16__dependent_typeINS_27__unique_ptr_deleter_sfinaeISC_EEXT_EE20__good_rval_ref_typeE, symObjAddr: 0x14BC8, symBinAddr: 0x100018498, symSize: 0x48 }
  - { offsetInCU: 0x2F747, offset: 0x2F747, size: 0x8, addend: 0x0, symName: __ZNSt3__117__compressed_pairIPNS_11__tree_nodeINS_12__value_typeIcNS_6vectorIiNS_9allocatorIiEEEEEEPvEENS_22__tree_node_destructorINS4_IS9_EEEEEC1B7v160006IRSA_SD_EEOT_OT0_, symObjAddr: 0x14C10, symBinAddr: 0x1000184E0, symSize: 0x3C }
  - { offsetInCU: 0x2F79F, offset: 0x2F79F, size: 0x8, addend: 0x0, symName: __ZNSt3__117__compressed_pairIPNS_11__tree_nodeINS_12__value_typeIcNS_6vectorIiNS_9allocatorIiEEEEEEPvEENS_22__tree_node_destructorINS4_IS9_EEEEEC2B7v160006IRSA_SD_EEOT_OT0_, symObjAddr: 0x14C4C, symBinAddr: 0x10001851C, symSize: 0x48 }
  - { offsetInCU: 0x2F7F7, offset: 0x2F7F7, size: 0x8, addend: 0x0, symName: __ZNSt3__122__compressed_pair_elemIPNS_11__tree_nodeINS_12__value_typeIcNS_6vectorIiNS_9allocatorIiEEEEEEPvEELi0ELb0EEC2B7v160006IRSA_vEEOT_, symObjAddr: 0x14C94, symBinAddr: 0x100018564, symSize: 0x24 }
  - { offsetInCU: 0x2F839, offset: 0x2F839, size: 0x8, addend: 0x0, symName: __ZNSt3__122__compressed_pair_elemINS_22__tree_node_destructorINS_9allocatorINS_11__tree_nodeINS_12__value_typeIcNS_6vectorIiNS2_IiEEEEEEPvEEEEEELi1ELb0EEC2B7v160006ISC_vEEOT_, symObjAddr: 0x14CB8, symBinAddr: 0x100018588, symSize: 0x24 }
  - { offsetInCU: 0x2F87B, offset: 0x2F87B, size: 0x8, addend: 0x0, symName: __ZNSt3__19allocatorINS_11__tree_nodeINS_12__value_typeIcNS_6vectorIiNS0_IiEEEEEEPvEEE9constructB7v160006INS_4pairIKcS5_EEJRKNS_21piecewise_construct_tENS_5tupleIJRSC_EEENSH_IJEEEEEEvPT_DpOT0_, symObjAddr: 0x14CDC, symBinAddr: 0x1000185AC, symSize: 0x44 }
  - { offsetInCU: 0x2F8F7, offset: 0x2F8F7, size: 0x8, addend: 0x0, symName: __ZNSt3__14pairIKcNS_6vectorIiNS_9allocatorIiEEEEEC1B7v160006IJRS1_EJEEENS_21piecewise_construct_tENS_5tupleIJDpT_EEENSA_IJDpT0_EEE, symObjAddr: 0x14D20, symBinAddr: 0x1000185F0, symSize: 0x44 }
  - { offsetInCU: 0x2F95E, offset: 0x2F95E, size: 0x8, addend: 0x0, symName: __ZNSt3__14pairIKcNS_6vectorIiNS_9allocatorIiEEEEEC1B7v160006IJRS1_EJEJLm0EEJEEENS_21piecewise_construct_tERNS_5tupleIJDpT_EEERNSA_IJDpT0_EEENS_15__tuple_indicesIJXspT1_EEEENSJ_IJXspT2_EEEE, symObjAddr: 0x14D64, symBinAddr: 0x100018634, symSize: 0x3C }
  - { offsetInCU: 0x2F9EB, offset: 0x2F9EB, size: 0x8, addend: 0x0, symName: __ZNSt3__14pairIKcNS_6vectorIiNS_9allocatorIiEEEEEC2B7v160006IJRS1_EJEJLm0EEJEEENS_21piecewise_construct_tERNS_5tupleIJDpT_EEERNSA_IJDpT0_EEENS_15__tuple_indicesIJXspT1_EEEENSJ_IJXspT2_EEEE, symObjAddr: 0x14DA0, symBinAddr: 0x100018670, symSize: 0x4C }
  - { offsetInCU: 0x2FA78, offset: 0x2FA78, size: 0x8, addend: 0x0, symName: __ZNKSt3__117__compressed_pairIPNS_11__tree_nodeINS_12__value_typeIcNS_6vectorIiNS_9allocatorIiEEEEEEPvEENS_22__tree_node_destructorINS4_IS9_EEEEE5firstB7v160006Ev, symObjAddr: 0x14DEC, symBinAddr: 0x1000186BC, symSize: 0x24 }
  - { offsetInCU: 0x2FA9E, offset: 0x2FA9E, size: 0x8, addend: 0x0, symName: __ZNKSt3__122__compressed_pair_elemIPNS_11__tree_nodeINS_12__value_typeIcNS_6vectorIiNS_9allocatorIiEEEEEEPvEELi0ELb0EE5__getB7v160006Ev, symObjAddr: 0x14E10, symBinAddr: 0x1000186E0, symSize: 0x14 }
  - { offsetInCU: 0x2FAC4, offset: 0x2FAC4, size: 0x8, addend: 0x0, symName: __ZNSt3__117__compressed_pairIPNS_11__tree_nodeINS_12__value_typeIcNS_6vectorIiNS_9allocatorIiEEEEEEPvEENS_22__tree_node_destructorINS4_IS9_EEEEE6secondB7v160006Ev, symObjAddr: 0x14E24, symBinAddr: 0x1000186F4, symSize: 0x28 }
  - { offsetInCU: 0x2FAEA, offset: 0x2FAEA, size: 0x8, addend: 0x0, symName: __ZNSt3__122__compressed_pair_elemINS_22__tree_node_destructorINS_9allocatorINS_11__tree_nodeINS_12__value_typeIcNS_6vectorIiNS2_IiEEEEEEPvEEEEEELi1ELb0EE5__getB7v160006Ev, symObjAddr: 0x14E4C, symBinAddr: 0x10001871C, symSize: 0x14 }
  - { offsetInCU: 0x2FB10, offset: 0x2FB10, size: 0x8, addend: 0x0, symName: __ZNSt3__16__treeINS_12__value_typeIcNS_6vectorIiNS_9allocatorIiEEEEEENS_19__map_value_compareIcS6_NS_4lessIcEELb1EEENS3_IS6_EEE4sizeB7v160006Ev, symObjAddr: 0x14E60, symBinAddr: 0x100018730, symSize: 0x28 }
  - { offsetInCU: 0x2FB36, offset: 0x2FB36, size: 0x8, addend: 0x0, symName: __ZNSt3__117__compressed_pairImNS_19__map_value_compareIcNS_12__value_typeIcNS_6vectorIiNS_9allocatorIiEEEEEENS_4lessIcEELb1EEEE5firstB7v160006Ev, symObjAddr: 0x14E88, symBinAddr: 0x100018758, symSize: 0x24 }
  - { offsetInCU: 0x2FB5C, offset: 0x2FB5C, size: 0x8, addend: 0x0, symName: __ZNSt3__117__compressed_pairIPNS_11__tree_nodeINS_12__value_typeIcNS_6vectorIiNS_9allocatorIiEEEEEEPvEENS_22__tree_node_destructorINS4_IS9_EEEEE5firstB7v160006Ev, symObjAddr: 0x14EAC, symBinAddr: 0x10001877C, symSize: 0x24 }
  - { offsetInCU: 0x2FB82, offset: 0x2FB82, size: 0x8, addend: 0x0, symName: __ZNSt3__122__compressed_pair_elemIPNS_11__tree_nodeINS_12__value_typeIcNS_6vectorIiNS_9allocatorIiEEEEEEPvEELi0ELb0EE5__getB7v160006Ev, symObjAddr: 0x14ED0, symBinAddr: 0x1000187A0, symSize: 0x14 }
  - { offsetInCU: 0x2FBA8, offset: 0x2FBA8, size: 0x8, addend: 0x0, symName: __ZNSt3__110unique_ptrINS_11__tree_nodeINS_12__value_typeIcNS_6vectorIiNS_9allocatorIiEEEEEEPvEENS_22__tree_node_destructorINS4_IS9_EEEEED2B7v160006Ev, symObjAddr: 0x14EE4, symBinAddr: 0x1000187B4, symSize: 0x30 }
  - { offsetInCU: 0x2FBD2, offset: 0x2FBD2, size: 0x8, addend: 0x0, symName: __ZNSt3__110unique_ptrINS_11__tree_nodeINS_12__value_typeIcNS_6vectorIiNS_9allocatorIiEEEEEEPvEENS_22__tree_node_destructorINS4_IS9_EEEEE5resetB7v160006EPS9_, symObjAddr: 0x14F14, symBinAddr: 0x1000187E4, symSize: 0x78 }
  - { offsetInCU: 0x2FC16, offset: 0x2FC16, size: 0x8, addend: 0x0, symName: __ZNSt3__122__tree_node_destructorINS_9allocatorINS_11__tree_nodeINS_12__value_typeIcNS_6vectorIiNS1_IiEEEEEEPvEEEEEclB7v160006EPS9_, symObjAddr: 0x14F8C, symBinAddr: 0x10001885C, symSize: 0x94 }
  - { offsetInCU: 0x2FC4B, offset: 0x2FC4B, size: 0x8, addend: 0x0, symName: __ZNSt3__115__tree_iteratorINS_12__value_typeIcNS_6vectorIiNS_9allocatorIiEEEEEEPNS_11__tree_nodeIS6_PvEElEC2B7v160006ESA_, symObjAddr: 0x15020, symBinAddr: 0x1000188F0, symSize: 0x20 }
  - { offsetInCU: 0x2FC84, offset: 0x2FC84, size: 0x8, addend: 0x0, symName: __ZNSt3__14pairINS_15__tree_iteratorINS_12__value_typeIcNS_6vectorIiNS_9allocatorIiEEEEEEPNS_11__tree_nodeIS7_PvEElEEbEC2B7v160006ISC_RbLS9_0EEEOT_OT0_, symObjAddr: 0x15040, symBinAddr: 0x100018910, symSize: 0x38 }
  - { offsetInCU: 0x2FCE2, offset: 0x2FCE2, size: 0x8, addend: 0x0, symName: __ZNSt3__114pointer_traitsIPNS_12__value_typeIcNS_6vectorIiNS_9allocatorIiEEEEEEE10pointer_toB7v160006ERS6_, symObjAddr: 0x15078, symBinAddr: 0x100018948, symSize: 0x14 }
  - { offsetInCU: 0x2FD05, offset: 0x2FD05, size: 0x8, addend: 0x0, symName: __ZNKSt3__115__tree_iteratorINS_12__value_typeIcNS_6vectorIiNS_9allocatorIiEEEEEEPNS_11__tree_nodeIS6_PvEElE8__get_npB7v160006Ev, symObjAddr: 0x1508C, symBinAddr: 0x10001895C, symSize: 0x18 }
  - { offsetInCU: 0x2FD2B, offset: 0x2FD2B, size: 0x8, addend: 0x0, symName: __ZNSt3__16vectorIiNS_9allocatorIiEEE19__copy_assign_allocB7v160006ERKS3_, symObjAddr: 0x150A4, symBinAddr: 0x100018974, symSize: 0x2C }
  - { offsetInCU: 0x2FD60, offset: 0x2FD60, size: 0x8, addend: 0x0, symName: __ZNSt3__16vectorIiNS_9allocatorIiEEE6assignIPiLi0EEEvT_S6_, symObjAddr: 0x150D0, symBinAddr: 0x1000189A0, symSize: 0x17C }
  - { offsetInCU: 0x2FDFF, offset: 0x2FDFF, size: 0x8, addend: 0x0, symName: __ZNSt3__16vectorIiNS_9allocatorIiEEE19__copy_assign_allocB7v160006ERKS3_NS_17integral_constantIbLb0EEE, symObjAddr: 0x1524C, symBinAddr: 0x100018B1C, symSize: 0x14 }
  - { offsetInCU: 0x2FE3B, offset: 0x2FE3B, size: 0x8, addend: 0x0, symName: __ZNSt3__16vectorIiNS_9allocatorIiEEE17__destruct_at_endB7v160006EPi, symObjAddr: 0x1531C, symBinAddr: 0x100018BEC, symSize: 0x60 }
  - { offsetInCU: 0x2FE7F, offset: 0x2FE7F, size: 0x8, addend: 0x0, symName: __ZNSt3__16vectorIiNS_9allocatorIiEEE13__vdeallocateEv, symObjAddr: 0x1537C, symBinAddr: 0x100018C4C, symSize: 0x8C }
  - { offsetInCU: 0x2FECA, offset: 0x2FECA, size: 0x8, addend: 0x0, symName: __ZNKSt3__114__copy_trivialclB7v160006IiiLi0EEENS_4pairIPT_PT0_EES4_S4_S6_, symObjAddr: 0x15608, symBinAddr: 0x100018ED8, symSize: 0x48 }
  - { offsetInCU: 0x2FF37, offset: 0x2FF37, size: 0x8, addend: 0x0, symName: __ZNSt3__14pairIPiS1_EC1B7v160006IRS1_S1_LPv0EEEOT_OT0_, symObjAddr: 0x157D0, symBinAddr: 0x1000190A0, symSize: 0x3C }
  - { offsetInCU: 0x2FF95, offset: 0x2FF95, size: 0x8, addend: 0x0, symName: __ZNSt3__14pairIPiS1_EC2B7v160006IRS1_S1_LPv0EEEOT_OT0_, symObjAddr: 0x1580C, symBinAddr: 0x1000190DC, symSize: 0x34 }
  - { offsetInCU: 0x2FFF3, offset: 0x2FFF3, size: 0x8, addend: 0x0, symName: __ZNSt3__118__unwrap_iter_implIPiLb1EE8__unwrapB7v160006ES1_, symObjAddr: 0x15840, symBinAddr: 0x100019110, symSize: 0x24 }
  - { offsetInCU: 0x30016, offset: 0x30016, size: 0x8, addend: 0x0, symName: __ZNSt3__14pairIPiS1_EC1B7v160006IS1_S1_LPv0EEEOT_OT0_, symObjAddr: 0x15864, symBinAddr: 0x100019134, symSize: 0x3C }
  - { offsetInCU: 0x30074, offset: 0x30074, size: 0x8, addend: 0x0, symName: __ZNSt3__14pairIPiS1_EC2B7v160006IS1_S1_LPv0EEEOT_OT0_, symObjAddr: 0x158A0, symBinAddr: 0x100019170, symSize: 0x34 }
  - { offsetInCU: 0x300D2, offset: 0x300D2, size: 0x8, addend: 0x0, symName: __ZNSt3__118__unwrap_iter_implIPiLb1EE8__rewrapB7v160006ES1_S1_, symObjAddr: 0x158D4, symBinAddr: 0x1000191A4, symSize: 0x50 }
  - { offsetInCU: 0x30103, offset: 0x30103, size: 0x8, addend: 0x0, symName: __ZNSt3__16vectorIiNS_9allocatorIiEEE27__invalidate_iterators_pastB7v160006EPi, symObjAddr: 0x15924, symBinAddr: 0x1000191F4, symSize: 0x14 }
  - { offsetInCU: 0x3013A, offset: 0x3013A, size: 0x8, addend: 0x0, symName: __ZNKSt3__16vectorIiNS_9allocatorIiEEE17__annotate_shrinkB7v160006Em, symObjAddr: 0x15938, symBinAddr: 0x100019208, symSize: 0xB4 }
  - { offsetInCU: 0x3016F, offset: 0x3016F, size: 0x8, addend: 0x0, symName: __ZNSt3__16vectorIiNS_9allocatorIiEEE5clearB7v160006Ev, symObjAddr: 0x159EC, symBinAddr: 0x1000192BC, symSize: 0x4C }
  - { offsetInCU: 0x301A4, offset: 0x301A4, size: 0x8, addend: 0x0, symName: __ZNSt3__16__treeINS_12__value_typeIcNS_6vectorIiNS_9allocatorIiEEEEEENS_19__map_value_compareIcS6_NS_4lessIcEELb1EEENS3_IS6_EEE5beginB7v160006Ev, symObjAddr: 0x15A38, symBinAddr: 0x100019308, symSize: 0x34 }
  - { offsetInCU: 0x301CA, offset: 0x301CA, size: 0x8, addend: 0x0, symName: __ZNSt3__114__map_iteratorINS_15__tree_iteratorINS_12__value_typeIcNS_6vectorIiNS_9allocatorIiEEEEEEPNS_11__tree_nodeIS7_PvEElEEEC1B7v160006ESC_, symObjAddr: 0x15A6C, symBinAddr: 0x10001933C, symSize: 0x34 }
  - { offsetInCU: 0x30203, offset: 0x30203, size: 0x8, addend: 0x0, symName: __ZNSt3__115__tree_iteratorINS_12__value_typeIcNS_6vectorIiNS_9allocatorIiEEEEEEPNS_11__tree_nodeIS6_PvEElEC1B7v160006EPNS_15__tree_end_nodeIPNS_16__tree_node_baseIS8_EEEE, symObjAddr: 0x15AA0, symBinAddr: 0x100019370, symSize: 0x34 }
  - { offsetInCU: 0x3023C, offset: 0x3023C, size: 0x8, addend: 0x0, symName: __ZNSt3__115__tree_iteratorINS_12__value_typeIcNS_6vectorIiNS_9allocatorIiEEEEEEPNS_11__tree_nodeIS6_PvEElEC2B7v160006EPNS_15__tree_end_nodeIPNS_16__tree_node_baseIS8_EEEE, symObjAddr: 0x15AD4, symBinAddr: 0x1000193A4, symSize: 0x20 }
  - { offsetInCU: 0x30275, offset: 0x30275, size: 0x8, addend: 0x0, symName: __ZNSt3__114__map_iteratorINS_15__tree_iteratorINS_12__value_typeIcNS_6vectorIiNS_9allocatorIiEEEEEEPNS_11__tree_nodeIS7_PvEElEEEC2B7v160006ESC_, symObjAddr: 0x15AF4, symBinAddr: 0x1000193C4, symSize: 0x20 }
  - { offsetInCU: 0x302AE, offset: 0x302AE, size: 0x8, addend: 0x0, symName: __ZNSt3__16__treeINS_12__value_typeIcNS_6vectorIiNS_9allocatorIiEEEEEENS_19__map_value_compareIcS6_NS_4lessIcEELb1EEENS3_IS6_EEE3endB7v160006Ev, symObjAddr: 0x15B14, symBinAddr: 0x1000193E4, symSize: 0x34 }
  - { offsetInCU: 0x302D4, offset: 0x302D4, size: 0x8, addend: 0x0, symName: __ZNSt3__115__tree_iteratorINS_12__value_typeIcNS_6vectorIiNS_9allocatorIiEEEEEEPNS_11__tree_nodeIS6_PvEElEppB7v160006Ev, symObjAddr: 0x15BAC, symBinAddr: 0x10001947C, symSize: 0x38 }
  - { offsetInCU: 0x302FA, offset: 0x302FA, size: 0x8, addend: 0x0, symName: __ZNSt3__16vectorIiNS_9allocatorIiEEE11__make_iterB7v160006EPi, symObjAddr: 0x15BE4, symBinAddr: 0x1000194B4, symSize: 0x34 }
  - { offsetInCU: 0x3032F, offset: 0x3032F, size: 0x8, addend: 0x0, symName: __ZNSt3__111__wrap_iterIPiEC1B7v160006EPKvS1_, symObjAddr: 0x15C18, symBinAddr: 0x1000194E8, symSize: 0x3C }
  - { offsetInCU: 0x30375, offset: 0x30375, size: 0x8, addend: 0x0, symName: __ZNSt3__111__wrap_iterIPiEC2B7v160006EPKvS1_, symObjAddr: 0x15C54, symBinAddr: 0x100019524, symSize: 0x24 }
  - { offsetInCU: 0x303BB, offset: 0x303BB, size: 0x8, addend: 0x0, symName: __ZNSt3__16vectorINS_4pairIccEENS_9allocatorIS2_EEEC2ERKS5_, symObjAddr: 0x15C78, symBinAddr: 0x100019548, symSize: 0x110 }
  - { offsetInCU: 0x3041A, offset: 0x3041A, size: 0x8, addend: 0x0, symName: __ZNSt3__116allocator_traitsINS_9allocatorINS_4pairIccEEEEE37select_on_container_copy_constructionB7v160006IS4_vvEES4_RKS4_, symObjAddr: 0x15D88, symBinAddr: 0x100019658, symSize: 0x10 }
  - { offsetInCU: 0x3044E, offset: 0x3044E, size: 0x8, addend: 0x0, symName: __ZNSt3__117__compressed_pairIPNS_4pairIccEENS_9allocatorIS2_EEEC1B7v160006IDnS5_EEOT_OT0_, symObjAddr: 0x15D98, symBinAddr: 0x100019668, symSize: 0x3C }
  - { offsetInCU: 0x304A6, offset: 0x304A6, size: 0x8, addend: 0x0, symName: __ZNSt3__16vectorINS_4pairIccEENS_9allocatorIS2_EEE11__vallocateB7v160006Em, symObjAddr: 0x15E14, symBinAddr: 0x1000196E4, symSize: 0xAC }
  - { offsetInCU: 0x304EA, offset: 0x304EA, size: 0x8, addend: 0x0, symName: __ZNSt3__16vectorINS_4pairIccEENS_9allocatorIS2_EEE18__construct_at_endIPS2_Li0EEEvT_S8_m, symObjAddr: 0x15EC0, symBinAddr: 0x100019790, symSize: 0x8C }
  - { offsetInCU: 0x3055D, offset: 0x3055D, size: 0x8, addend: 0x0, symName: __ZNSt3__128__exception_guard_exceptionsINS_6vectorINS_4pairIccEENS_9allocatorIS3_EEE16__destroy_vectorEE10__completeB7v160006Ev, symObjAddr: 0x15F4C, symBinAddr: 0x10001981C, symSize: 0x1C }
  - { offsetInCU: 0x30583, offset: 0x30583, size: 0x8, addend: 0x0, symName: __ZNSt3__128__exception_guard_exceptionsINS_6vectorINS_4pairIccEENS_9allocatorIS3_EEE16__destroy_vectorEED1B7v160006Ev, symObjAddr: 0x15F68, symBinAddr: 0x100019838, symSize: 0x2C }
  - { offsetInCU: 0x305AD, offset: 0x305AD, size: 0x8, addend: 0x0, symName: __ZNSt3__117__compressed_pairIPNS_4pairIccEENS_9allocatorIS2_EEEC2B7v160006IDnS5_EEOT_OT0_, symObjAddr: 0x15F94, symBinAddr: 0x100019864, symSize: 0x44 }
  - { offsetInCU: 0x30605, offset: 0x30605, size: 0x8, addend: 0x0, symName: __ZNSt3__122__compressed_pair_elemINS_9allocatorINS_4pairIccEEEELi1ELb1EEC2B7v160006IS4_vEEOT_, symObjAddr: 0x15FD8, symBinAddr: 0x1000198A8, symSize: 0x18 }
  - { offsetInCU: 0x30647, offset: 0x30647, size: 0x8, addend: 0x0, symName: __ZNSt3__128__exception_guard_exceptionsINS_6vectorINS_4pairIccEENS_9allocatorIS3_EEE16__destroy_vectorEEC1B7v160006ES7_, symObjAddr: 0x15FF0, symBinAddr: 0x1000198C0, symSize: 0x34 }
  - { offsetInCU: 0x3067F, offset: 0x3067F, size: 0x8, addend: 0x0, symName: __ZNSt3__128__exception_guard_exceptionsINS_6vectorINS_4pairIccEENS_9allocatorIS3_EEE16__destroy_vectorEEC2B7v160006ES7_, symObjAddr: 0x16024, symBinAddr: 0x1000198F4, symSize: 0x24 }
  - { offsetInCU: 0x306B7, offset: 0x306B7, size: 0x8, addend: 0x0, symName: __ZNSt3__129_AllocatorDestroyRangeReverseINS_9allocatorINS_4pairIccEEEEPS3_EC1B7v160006ERS4_RS5_S8_, symObjAddr: 0x16188, symBinAddr: 0x100019A58, symSize: 0x44 }
  - { offsetInCU: 0x3070E, offset: 0x3070E, size: 0x8, addend: 0x0, symName: __ZNSt3__116allocator_traitsINS_9allocatorINS_4pairIccEEEEE9constructB7v160006IS3_JRS3_EvEEvRS4_PT_DpOT0_, symObjAddr: 0x161CC, symBinAddr: 0x100019A9C, symSize: 0x34 }
  - { offsetInCU: 0x30765, offset: 0x30765, size: 0x8, addend: 0x0, symName: __ZNSt3__128__exception_guard_exceptionsINS_29_AllocatorDestroyRangeReverseINS_9allocatorINS_4pairIccEEEEPS4_EEE10__completeB7v160006Ev, symObjAddr: 0x16200, symBinAddr: 0x100019AD0, symSize: 0x1C }
  - { offsetInCU: 0x3078B, offset: 0x3078B, size: 0x8, addend: 0x0, symName: __ZNSt3__128__exception_guard_exceptionsINS_29_AllocatorDestroyRangeReverseINS_9allocatorINS_4pairIccEEEEPS4_EEED1B7v160006Ev, symObjAddr: 0x1621C, symBinAddr: 0x100019AEC, symSize: 0x2C }
  - { offsetInCU: 0x307B5, offset: 0x307B5, size: 0x8, addend: 0x0, symName: __ZNSt3__128__exception_guard_exceptionsINS_29_AllocatorDestroyRangeReverseINS_9allocatorINS_4pairIccEEEEPS4_EEEC1B7v160006ES7_, symObjAddr: 0x16248, symBinAddr: 0x100019B18, symSize: 0x34 }
  - { offsetInCU: 0x307EE, offset: 0x307EE, size: 0x8, addend: 0x0, symName: __ZNSt3__128__exception_guard_exceptionsINS_29_AllocatorDestroyRangeReverseINS_9allocatorINS_4pairIccEEEEPS4_EEEC2B7v160006ES7_, symObjAddr: 0x1627C, symBinAddr: 0x100019B4C, symSize: 0x30 }
  - { offsetInCU: 0x30827, offset: 0x30827, size: 0x8, addend: 0x0, symName: __ZNSt3__129_AllocatorDestroyRangeReverseINS_9allocatorINS_4pairIccEEEEPS3_EC2B7v160006ERS4_RS5_S8_, symObjAddr: 0x162AC, symBinAddr: 0x100019B7C, symSize: 0x38 }
  - { offsetInCU: 0x3087E, offset: 0x3087E, size: 0x8, addend: 0x0, symName: __ZNSt3__19allocatorINS_4pairIccEEE9constructB7v160006IS2_JRS2_EEEvPT_DpOT0_, symObjAddr: 0x162E4, symBinAddr: 0x100019BB4, symSize: 0x28 }
  - { offsetInCU: 0x308D4, offset: 0x308D4, size: 0x8, addend: 0x0, symName: __ZNSt3__128__exception_guard_exceptionsINS_29_AllocatorDestroyRangeReverseINS_9allocatorINS_4pairIccEEEEPS4_EEED2B7v160006Ev, symObjAddr: 0x1630C, symBinAddr: 0x100019BDC, symSize: 0x50 }
  - { offsetInCU: 0x308FE, offset: 0x308FE, size: 0x8, addend: 0x0, symName: __ZNKSt3__129_AllocatorDestroyRangeReverseINS_9allocatorINS_4pairIccEEEEPS3_EclB7v160006Ev, symObjAddr: 0x1635C, symBinAddr: 0x100019C2C, symSize: 0x68 }
  - { offsetInCU: 0x30924, offset: 0x30924, size: 0x8, addend: 0x0, symName: __ZNSt3__128__exception_guard_exceptionsINS_6vectorINS_4pairIccEENS_9allocatorIS3_EEE16__destroy_vectorEED2B7v160006Ev, symObjAddr: 0x16434, symBinAddr: 0x100019D04, symSize: 0x50 }
  - { offsetInCU: 0x3094E, offset: 0x3094E, size: 0x8, addend: 0x0, symName: __ZNSt3__115__tree_iteratorINS_12__value_typeIcP7adjNodeEEPNS_11__tree_nodeIS4_PvEElEppB7v160006Ev, symObjAddr: 0x164E8, symBinAddr: 0x100019DB8, symSize: 0x38 }
...
